ccopy_reg
_reconstructor
p0
(cMCTS
State
p1
c__builtin__
object
p2
Ntp3
Rp4
(dp5
S'parent_action'
p6
NsS'index'
p7
cnumpy.core.multiarray
_reconstruct
p8
(cnumpy
ndarray
p9
(I0
tp10
S'b'
p11
tp12
Rp13
(I1
(I2
tp14
cnumpy
dtype
p15
(S'f8'
p16
I0
I1
tp17
Rp18
(I3
S'<'
p19
NNNI-1
I-1
I0
tp20
bI00
S'\x00\x00\x00\x80j\x07\r\xc0\x00\x00\x00\xc0\xf8O\x05@'
p21
tp22
bsS'Qa'
p23
NsS'child_actions'
p24
(lp25
(iMCTS
Action
p26
(dp27
S'index'
p28
I0
sS'parent_state'
p29
g4
sS'n'
p30
I4
sS'Q'
p31
cnumpy.core.multiarray
scalar
p32
(g18
S'\x19\x88d)\xfaM;\xc0'
p33
tp34
Rp35
sS'W'
p36
g32
(g18
S'\x19\x88d)\xfaM[\xc0'
p37
tp38
Rp39
sS'child_state'
p40
g0
(g1
g2
Ntp41
Rp42
(dp43
g6
g26
sg7
g8
(g9
(I0
tp44
g11
tp45
Rp46
(I1
(I2
tp47
g18
I00
S'\x00\x00\x00\x00\xe0\xc9\x07\xc0\x00\x00\x00\x80\xa0\x85\n@'
p48
tp49
bsg23
Nsg24
(lp50
(iMCTS
Action
p51
(dp52
g28
I0
sg29
g42
sg30
I1
sg31
g32
(g18
S'\x1b\x17\xba\xd3\xb5\x956\xc0'
p53
tp54
Rp55
sg36
g32
(g18
S'\x1b\x17\xba\xd3\xb5\x956\xc0'
p56
tp57
Rp58
sg40
g0
(g1
g2
Ntp59
Rp60
(dp61
g6
g51
sg7
g8
(g9
(I0
tp62
g11
tp63
Rp64
(I1
(I2
tp65
g18
I00
S'\x00\x00\x00\xc0\xb0\x9e\xf4\xbf\x00\x00\x00`x\x08\x10@'
p66
tp67
bsg23
Nsg24
(lp68
(iMCTS
Action
p69
(dp70
g31
g8
(g9
(I0
tp71
g11
tp72
Rp73
(I1
(I1
I1
tp74
g15
(S'f4'
p75
I0
I1
tp76
Rp77
(I3
S'<'
p78
NNNI-1
I-1
I0
tp79
bI00
S'\x1e\n\x98\xc1'
p80
tp81
bsg28
I0
sg36
I0
sg29
g60
sg30
I0
sba(iMCTS
Action
p82
(dp83
g31
g73
sg28
I1
sg36
I0
sg29
g60
sg30
I0
sba(iMCTS
Action
p84
(dp85
g31
g73
sg28
I2
sg36
I0
sg29
g60
sg30
I0
sba(iMCTS
Action
p86
(dp87
g31
g73
sg28
I3
sg36
I0
sg29
g60
sg30
I0
sba(iMCTS
Action
p88
(dp89
g31
g73
sg28
I4
sg36
I0
sg29
g60
sg30
I0
sba(iMCTS
Action
p90
(dp91
g31
g73
sg28
I5
sg36
I0
sg29
g60
sg30
I0
sba(iMCTS
Action
p92
(dp93
g31
g73
sg28
I6
sg36
I0
sg29
g60
sg30
I0
sba(iMCTS
Action
p94
(dp95
g31
g73
sg28
I7
sg36
I0
sg29
g60
sg30
I0
sba(iMCTS
Action
p96
(dp97
g31
g73
sg28
I8
sg36
I0
sg29
g60
sg30
I0
sbasS'priors'
p98
g8
(g9
(I0
tp99
g11
tp100
Rp101
(I1
(I9
tp102
g77
I00
S's\xa9 >\x01P\xef=\xee\xa9\xc6=\xc7\xee\xd5=3\xca\x02>\x0c\xee\xdd=V\x08\x8d=\x05b\xcb=\x95\xd7\xf6='
p103
tp104
bsS'V'
p105
g73
sg30
I0
sS'terminal'
p106
I00
sS'returns'
p107
(lp108
sS'r'
p109
F-3.5798656777688893
sS'na'
p110
I9
sbsba(iMCTS
Action
p111
(dp112
g28
I1
sg29
g42
sg30
I1
sg31
g32
(g18
S'\x11\xd6\xd8\x0c%,8\xc0'
p113
tp114
Rp115
sg36
g32
(g18
S'\x11\xd6\xd8\x0c%,8\xc0'
p116
tp117
Rp118
sg40
g0
(g1
g2
Ntp119
Rp120
(dp121
g6
g111
sg7
g8
(g9
(I0
tp122
g11
tp123
Rp124
(I1
(I2
tp125
g18
I00
S'\x00\x00\x00\x00-\x03\x03\xc0\x00\x00\x00`\xb1\xf0\x0b@'
p126
tp127
bsg23
Nsg24
(lp128
(iMCTS
Action
p129
(dp130
g31
g8
(g9
(I0
tp131
g11
tp132
Rp133
(I1
(I1
I1
tp134
g77
I00
S'\xc8\x04\xa5\xc1'
p135
tp136
bsg28
I0
sg36
I0
sg29
g120
sg30
I0
sba(iMCTS
Action
p137
(dp138
g31
g133
sg28
I1
sg36
I0
sg29
g120
sg30
I0
sba(iMCTS
Action
p139
(dp140
g31
g133
sg28
I2
sg36
I0
sg29
g120
sg30
I0
sba(iMCTS
Action
p141
(dp142
g31
g133
sg28
I3
sg36
I0
sg29
g120
sg30
I0
sba(iMCTS
Action
p143
(dp144
g31
g133
sg28
I4
sg36
I0
sg29
g120
sg30
I0
sba(iMCTS
Action
p145
(dp146
g31
g133
sg28
I5
sg36
I0
sg29
g120
sg30
I0
sba(iMCTS
Action
p147
(dp148
g31
g133
sg28
I6
sg36
I0
sg29
g120
sg30
I0
sba(iMCTS
Action
p149
(dp150
g31
g133
sg28
I7
sg36
I0
sg29
g120
sg30
I0
sba(iMCTS
Action
p151
(dp152
g31
g133
sg28
I8
sg36
I0
sg29
g120
sg30
I0
sbasg98
g8
(g9
(I0
tp153
g11
tp154
Rp155
(I1
(I9
tp156
g77
I00
S'`\x05F>\x16\xab\xf3=\xae\\\xd5=k\xd0\xce=\xcaR\xf7=\xdf(\xd6=\xa1A\x82=\xfb\xc9\xaf=\xca\x95\xdc='
p157
tp158
bsg105
g133
sg30
I0
sg106
I00
sg107
(lp159
sg109
F-3.5451057462106
sg110
I9
sbsba(iMCTS
Action
p160
(dp161
g31
g8
(g9
(I0
tp162
g11
tp163
Rp164
(I1
(I1
I1
tp165
g77
I00
S'\x8e\xe1\xb0\xc1'
p166
tp167
bsg28
I2
sg36
I0
sg29
g42
sg30
I0
sba(iMCTS
Action
p168
(dp169
g31
g164
sg28
I3
sg36
I0
sg29
g42
sg30
I0
sba(iMCTS
Action
p170
(dp171
g28
I4
sg29
g42
sg30
I1
sg31
g32
(g18
S'n-\x1a\xd1-T9\xc0'
p172
tp173
Rp174
sg36
g32
(g18
S'n-\x1a\xd1-T9\xc0'
p175
tp176
Rp177
sg40
g0
(g1
g2
Ntp178
Rp179
(dp180
g6
g170
sg7
g8
(g9
(I0
tp181
g11
tp182
Rp183
(I1
(I2
tp184
g18
I00
S'\x00\x00\x00\xc0\x8cG\x06\xc0\x00\x00\x00\xc0\xf1\x06\x0b@'
p185
tp186
bsg23
Nsg24
(lp187
(iMCTS
Action
p188
(dp189
g31
g8
(g9
(I0
tp190
g11
tp191
Rp192
(I1
(I1
I1
tp193
g77
I00
S'D#\xad\xc1'
p194
tp195
bsg28
I0
sg36
I0
sg29
g179
sg30
I0
sba(iMCTS
Action
p196
(dp197
g31
g192
sg28
I1
sg36
I0
sg29
g179
sg30
I0
sba(iMCTS
Action
p198
(dp199
g31
g192
sg28
I2
sg36
I0
sg29
g179
sg30
I0
sba(iMCTS
Action
p200
(dp201
g31
g192
sg28
I3
sg36
I0
sg29
g179
sg30
I0
sba(iMCTS
Action
p202
(dp203
g31
g192
sg28
I4
sg36
I0
sg29
g179
sg30
I0
sba(iMCTS
Action
p204
(dp205
g31
g192
sg28
I5
sg36
I0
sg29
g179
sg30
I0
sba(iMCTS
Action
p206
(dp207
g31
g192
sg28
I6
sg36
I0
sg29
g179
sg30
I0
sba(iMCTS
Action
p208
(dp209
g31
g192
sg28
I7
sg36
I0
sg29
g179
sg30
I0
sba(iMCTS
Action
p210
(dp211
g31
g192
sg28
I8
sg36
I0
sg29
g179
sg30
I0
sbasg98
g8
(g9
(I0
tp212
g11
tp213
Rp214
(I1
(I9
tp215
g77
I00
S'i\xe4H>\x00\x8a\xf1=\xde\xe0\xe0=\x84,\xce=\xd3\xa1\xf2=\x8aj\xda=S\x8e\x7f=4\x19\xa9=\r\xb3\xd7='
p216
tp217
bsg105
g192
sg30
I0
sg106
I00
sg107
(lp218
sg109
F-3.6866045655164545
sg110
I9
sbsba(iMCTS
Action
p219
(dp220
g31
g164
sg28
I5
sg36
I0
sg29
g42
sg30
I0
sba(iMCTS
Action
p221
(dp222
g31
g164
sg28
I6
sg36
I0
sg29
g42
sg30
I0
sba(iMCTS
Action
p223
(dp224
g31
g164
sg28
I7
sg36
I0
sg29
g42
sg30
I0
sba(iMCTS
Action
p225
(dp226
g31
g164
sg28
I8
sg36
I0
sg29
g42
sg30
I0
sbasg98
g8
(g9
(I0
tp227
g11
tp228
Rp229
(I1
(I9
tp230
g77
I00
S"\xdf=H>'2\xf0=\x9c\xaf\xe6=\xd9;\xcf=x\xb6\xf1=\xfc\xbb\xdc=\xd8\xdd|=\xe0}\xa6=p\x07\xd6="
p231
tp232
bsg105
g164
sg30
I3
sg106
I00
sg107
(lp233
g32
(g18
S'\x1b\x17\xba\xd3\xb5\x956\xc0'
p234
tp235
Rp236
ag32
(g18
S'n-\x1a\xd1-T9\xc0'
p237
tp238
Rp239
ag32
(g18
S'\x11\xd6\xd8\x0c%,8\xc0'
p240
tp241
Rp242
asg109
F-3.75554734311431
sg110
I9
sbsba(iMCTS
Action
p243
(dp244
g28
I1
sg29
g4
sg30
I2
sg31
g32
(g18
S'\xae\xc3%oa\xd6;\xc0'
p245
tp246
Rp247
sg36
g32
(g18
S'\xae\xc3%oa\xd6K\xc0'
p248
tp249
Rp250
sg40
g0
(g1
g2
Ntp251
Rp252
(dp253
g6
g243
sg7
g8
(g9
(I0
tp254
g11
tp255
Rp256
(I1
(I2
tp257
g18
I00
S'\x00\x00\x00\x00\xdc\xad\t\xc0\x00\x00\x00 \xe5\xb4\x08@'
p258
tp259
bsg23
Nsg24
(lp260
(iMCTS
Action
p261
(dp262
g31
g8
(g9
(I0
tp263
g11
tp264
Rp265
(I1
(I1
I1
tp266
g77
I00
S'K\x99\xb3\xc1'
p267
tp268
bsg28
I0
sg36
I0
sg29
g252
sg30
I0
sba(iMCTS
Action
p269
(dp270
g31
g265
sg28
I1
sg36
I0
sg29
g252
sg30
I0
sba(iMCTS
Action
p271
(dp272
g31
g265
sg28
I2
sg36
I0
sg29
g252
sg30
I0
sba(iMCTS
Action
p273
(dp274
g31
g265
sg28
I3
sg36
I0
sg29
g252
sg30
I0
sba(iMCTS
Action
p275
(dp276
g28
I4
sg29
g252
sg30
I1
sg31
g32
(g18
S'\xad\x1a\x17\x0e\xb4\xba9\xc0'
p277
tp278
Rp279
sg36
g32
(g18
S'\xad\x1a\x17\x0e\xb4\xba9\xc0'
p280
tp281
Rp282
sg40
g0
(g1
g2
Ntp283
Rp284
(dp285
g6
g275
sg7
g8
(g9
(I0
tp286
g11
tp287
Rp288
(I1
(I2
tp289
g18
I00
S'\x00\x00\x00\xe0\x9f\xeb\x08\xc0\x00\x00\x00@\xf4d\x08@'
p290
tp291
bsg23
Nsg24
(lp292
(iMCTS
Action
p293
(dp294
g31
g8
(g9
(I0
tp295
g11
tp296
Rp297
(I1
(I1
I1
tp298
g77
I00
S'\xb2\x99\xb0\xc1'
p299
tp300
bsg28
I0
sg36
I0
sg29
g284
sg30
I0
sba(iMCTS
Action
p301
(dp302
g31
g297
sg28
I1
sg36
I0
sg29
g284
sg30
I0
sba(iMCTS
Action
p303
(dp304
g31
g297
sg28
I2
sg36
I0
sg29
g284
sg30
I0
sba(iMCTS
Action
p305
(dp306
g31
g297
sg28
I3
sg36
I0
sg29
g284
sg30
I0
sba(iMCTS
Action
p307
(dp308
g31
g297
sg28
I4
sg36
I0
sg29
g284
sg30
I0
sba(iMCTS
Action
p309
(dp310
g31
g297
sg28
I5
sg36
I0
sg29
g284
sg30
I0
sba(iMCTS
Action
p311
(dp312
g31
g297
sg28
I6
sg36
I0
sg29
g284
sg30
I0
sba(iMCTS
Action
p313
(dp314
g31
g297
sg28
I7
sg36
I0
sg29
g284
sg30
I0
sba(iMCTS
Action
p315
(dp316
g31
g297
sg28
I8
sg36
I0
sg29
g284
sg30
I0
sbasg98
g8
(g9
(I0
tp317
g11
tp318
Rp319
(I1
(I9
tp320
g77
I00
S'\xdb\x1fJ>2\xdf\xef=\xb8\xe5\xee=^\xd2\xce=\xdb\xc4\xef=\xb6\xb0\xdc=\xc3\xc9z=\x1a#\xa4=x+\xd0='
p321
tp322
bsg105
g297
sg30
I0
sg106
I00
sg107
(lp323
sg109
F-3.654263382569002
sg110
I9
sbsba(iMCTS
Action
p324
(dp325
g31
g265
sg28
I5
sg36
I0
sg29
g252
sg30
I0
sba(iMCTS
Action
p326
(dp327
g31
g265
sg28
I6
sg36
I0
sg29
g252
sg30
I0
sba(iMCTS
Action
p328
(dp329
g31
g265
sg28
I7
sg36
I0
sg29
g252
sg30
I0
sba(iMCTS
Action
p330
(dp331
g31
g265
sg28
I8
sg36
I0
sg29
g252
sg30
I0
sbasg98
g8
(g9
(I0
tp332
g11
tp333
Rp334
(I1
(I9
tp335
g77
I00
S'\xbc\x17H>\xb6\x15\xef=\xce\xc7\xf0=\x1a*\xd0=\xdff\xf0=:\x85\xde=%\x8ay=J\xeb\xa2=},\xd1='
p336
tp337
bsg105
g265
sg30
I1
sg106
I00
sg107
(lp338
g32
(g18
S'\xad\x1a\x17\x0e\xb4\xba9\xc0'
p339
tp340
Rp341
asg109
F-3.747844225310786
sg110
I9
sbsba(iMCTS
Action
p342
(dp343
g28
I2
sg29
g4
sg30
I2
sg31
g32
(g18
S'|*\x99KfO<\xc0'
p344
tp345
Rp346
sg36
g32
(g18
S'|*\x99KfOL\xc0'
p347
tp348
Rp349
sg40
g0
(g1
g2
Ntp350
Rp351
(dp352
g6
g342
sg7
g8
(g9
(I0
tp353
g11
tp354
Rp355
(I1
(I2
tp356
g18
I00
S'\x00\x00\x00 \x93\xa5\x0b\xc0\x00\x00\x00\x80J\xb0\x06@'
p357
tp358
bsg23
Nsg24
(lp359
(iMCTS
Action
p360
(dp361
g31
g8
(g9
(I0
tp362
g11
tp363
Rp364
(I1
(I1
I1
tp365
g77
I00
S'k\x82\xb6\xc1'
p366
tp367
bsg28
I0
sg36
I0
sg29
g351
sg30
I0
sba(iMCTS
Action
p368
(dp369
g31
g364
sg28
I1
sg36
I0
sg29
g351
sg30
I0
sba(iMCTS
Action
p370
(dp371
g31
g364
sg28
I2
sg36
I0
sg29
g351
sg30
I0
sba(iMCTS
Action
p372
(dp373
g31
g364
sg28
I3
sg36
I0
sg29
g351
sg30
I0
sba(iMCTS
Action
p374
(dp375
g28
I4
sg29
g351
sg30
I1
sg31
g32
(g18
S'Q9\xbe\xf9\xdeJ:\xc0'
p376
tp377
Rp378
sg36
g32
(g18
S'Q9\xbe\xf9\xdeJ:\xc0'
p379
tp380
Rp381
sg40
g0
(g1
g2
Ntp382
Rp383
(dp384
g6
g374
sg7
g8
(g9
(I0
tp385
g11
tp386
Rp387
(I1
(I2
tp388
g18
I00
S'\x00\x00\x00\x80\xeb\xd1\x0b\xc0\x00\x00\x00\x80\xcbb\x05@'
p389
tp390
bsg23
Nsg24
(lp391
(iMCTS
Action
p392
(dp393
g31
g8
(g9
(I0
tp394
g11
tp395
Rp396
(I1
(I1
I1
tp397
g77
I00
S':\xfa\xb4\xc1'
p398
tp399
bsg28
I0
sg36
I0
sg29
g383
sg30
I0
sba(iMCTS
Action
p400
(dp401
g31
g396
sg28
I1
sg36
I0
sg29
g383
sg30
I0
sba(iMCTS
Action
p402
(dp403
g31
g396
sg28
I2
sg36
I0
sg29
g383
sg30
I0
sba(iMCTS
Action
p404
(dp405
g31
g396
sg28
I3
sg36
I0
sg29
g383
sg30
I0
sba(iMCTS
Action
p406
(dp407
g31
g396
sg28
I4
sg36
I0
sg29
g383
sg30
I0
sba(iMCTS
Action
p408
(dp409
g31
g396
sg28
I5
sg36
I0
sg29
g383
sg30
I0
sba(iMCTS
Action
p410
(dp411
g31
g396
sg28
I6
sg36
I0
sg29
g383
sg30
I0
sba(iMCTS
Action
p412
(dp413
g31
g396
sg28
I7
sg36
I0
sg29
g383
sg30
I0
sba(iMCTS
Action
p414
(dp415
g31
g396
sg28
I8
sg36
I0
sg29
g383
sg30
I0
sbasg98
g8
(g9
(I0
tp416
g11
tp417
Rp418
(I1
(I9
tp419
g77
I00
S'b\x03E>\x8a\xf9\xef=\x17\xdf\x00>X\x86\xd0={\xd1\xee=\x0c\x89\xe1=*\xb4t=<\xc7\x9e=V?\xca='
p420
tp421
bsg105
g396
sg30
I0
sg106
I00
sg107
(lp422
sg109
F-3.6702838982976735
sg110
I9
sbsba(iMCTS
Action
p423
(dp424
g31
g364
sg28
I5
sg36
I0
sg29
g351
sg30
I0
sba(iMCTS
Action
p425
(dp426
g31
g364
sg28
I6
sg36
I0
sg29
g351
sg30
I0
sba(iMCTS
Action
p427
(dp428
g31
g364
sg28
I7
sg36
I0
sg29
g351
sg30
I0
sba(iMCTS
Action
p429
(dp430
g31
g364
sg28
I8
sg36
I0
sg29
g351
sg30
I0
sbasg98
g8
(g9
(I0
tp431
g11
tp432
Rp433
(I1
(I9
tp434
g77
I00
S'\xd69E>q\xde\xee=\xb8\xed\xfc=W|\xd1=\xac\xe3\xef=\xe7J\xe1=\xcd\xc0u=ZO\x9f=z\xe5\xcc='
p435
tp436
bsg105
g364
sg30
I1
sg106
I00
sg107
(lp437
g32
(g18
S'Q9\xbe\xf9\xdeJ:\xc0'
p438
tp439
Rp440
asg109
F-3.75708190958342
sg110
I9
sbsba(iMCTS
Action
p441
(dp442
g28
I3
sg29
g4
sg30
I1
sg31
g32
(g18
S'\xe4II\xab\x9eY;\xc0'
p443
tp444
Rp445
sg36
g32
(g18
S'\xe4II\xab\x9eY;\xc0'
p446
tp447
Rp448
sg40
g0
(g1
g2
Ntp449
Rp450
(dp451
g6
g441
sg7
g8
(g9
(I0
tp452
g11
tp453
Rp454
(I1
(I2
tp455
g18
I00
S'\x00\x00\x00`\xc6\x8e\x0e\xc0\x00\x00\x00`\x8d\x1b\x04@'
p456
tp457
bsg23
Nsg24
(lp458
(iMCTS
Action
p459
(dp460
g31
g8
(g9
(I0
tp461
g11
tp462
Rp463
(I1
(I1
I1
tp464
g77
I00
S'X\xff\xbb\xc1'
p465
tp466
bsg28
I0
sg36
I0
sg29
g450
sg30
I0
sba(iMCTS
Action
p467
(dp468
g31
g463
sg28
I1
sg36
I0
sg29
g450
sg30
I0
sba(iMCTS
Action
p469
(dp470
g31
g463
sg28
I2
sg36
I0
sg29
g450
sg30
I0
sba(iMCTS
Action
p471
(dp472
g31
g463
sg28
I3
sg36
I0
sg29
g450
sg30
I0
sba(iMCTS
Action
p473
(dp474
g31
g463
sg28
I4
sg36
I0
sg29
g450
sg30
I0
sba(iMCTS
Action
p475
(dp476
g31
g463
sg28
I5
sg36
I0
sg29
g450
sg30
I0
sba(iMCTS
Action
p477
(dp478
g31
g463
sg28
I6
sg36
I0
sg29
g450
sg30
I0
sba(iMCTS
Action
p479
(dp480
g31
g463
sg28
I7
sg36
I0
sg29
g450
sg30
I0
sba(iMCTS
Action
p481
(dp482
g31
g463
sg28
I8
sg36
I0
sg29
g450
sg30
I0
sbasg98
g8
(g9
(I0
tp483
g11
tp484
Rp485
(I1
(I9
tp486
g77
I00
S'\x19\xf5:>\xeb\x8b\xf0=\xca;\x08>\x83\x1c\xd3=\xd3O\xef=-E\xe8=\xa1\xa8n=?\x87\x9b=I\x85\xcb='
p487
tp488
bsg105
g463
sg30
I0
sg106
I00
sg107
(lp489
sg109
F-3.8503977827002838
sg110
I9
sbsba(iMCTS
Action
p490
(dp491
g28
I4
sg29
g4
sg30
I1
sg31
g32
(g18
S'\xe4\xac;\xff\xb65;\xc0'
p492
tp493
Rp494
sg36
g32
(g18
S'\xe4\xac;\xff\xb65;\xc0'
p495
tp496
Rp497
sg40
g0
(g1
g2
Ntp498
Rp499
(dp500
g6
g490
sg7
g8
(g9
(I0
tp501
g11
tp502
Rp503
(I1
(I2
tp504
g18
I00
S'\x00\x00\x00@\x12\xae\r\xc0\x00\x00\x00\x80nS\x05@'
p505
tp506
bsg23
Nsg24
(lp507
(iMCTS
Action
p508
(dp509
g31
g8
(g9
(I0
tp510
g11
tp511
Rp512
(I1
(I1
I1
tp513
g77
I00
S'\x13\xe3\xba\xc1'
p514
tp515
bsg28
I0
sg36
I0
sg29
g499
sg30
I0
sba(iMCTS
Action
p516
(dp517
g31
g512
sg28
I1
sg36
I0
sg29
g499
sg30
I0
sba(iMCTS
Action
p518
(dp519
g31
g512
sg28
I2
sg36
I0
sg29
g499
sg30
I0
sba(iMCTS
Action
p520
(dp521
g31
g512
sg28
I3
sg36
I0
sg29
g499
sg30
I0
sba(iMCTS
Action
p522
(dp523
g31
g512
sg28
I4
sg36
I0
sg29
g499
sg30
I0
sba(iMCTS
Action
p524
(dp525
g31
g512
sg28
I5
sg36
I0
sg29
g499
sg30
I0
sba(iMCTS
Action
p526
(dp527
g31
g512
sg28
I6
sg36
I0
sg29
g499
sg30
I0
sba(iMCTS
Action
p528
(dp529
g31
g512
sg28
I7
sg36
I0
sg29
g499
sg30
I0
sba(iMCTS
Action
p530
(dp531
g31
g512
sg28
I8
sg36
I0
sg29
g499
sg30
I0
sbasg98
g8
(g9
(I0
tp532
g11
tp533
Rp534
(I1
(I9
tp535
g77
I00
S'\xf7\x18?>h+\xef=\xa5>\x04>\x04U\xd3=\xc1.\xf0=\xb5w\xe5=\xc7\x99q=\x0by\x9c=\xea\xe3\xcb='
p536
tp537
bsg105
g512
sg30
I0
sg106
I00
sg107
(lp538
sg109
F-3.848947479314019
sg110
I9
sbsba(iMCTS
Action
p539
(dp540
g28
I5
sg29
g4
sg30
I2
sg31
g32
(g18
S'"\xe0k\xfc\xe4\xbd=\xc0'
p541
tp542
Rp543
sg36
g32
(g18
S'"\xe0k\xfc\xe4\xbdM\xc0'
p544
tp545
Rp546
sg40
g0
(g1
g2
Ntp547
Rp548
(dp549
g6
g539
sg7
g8
(g9
(I0
tp550
g11
tp551
Rp552
(I1
(I2
tp553
g18
I00
S'\x00\x00\x00\x80\x05\xb1\x0c\xc0\x00\x00\x00 \\\x85\x06@'
p554
tp555
bsg23
Nsg24
(lp556
(iMCTS
Action
p557
(dp558
g31
g8
(g9
(I0
tp559
g11
tp560
Rp561
(I1
(I1
I1
tp562
g77
I00
S'%\x8b\xb9\xc1'
p563
tp564
bsg28
I0
sg36
I0
sg29
g548
sg30
I0
sba(iMCTS
Action
p565
(dp566
g31
g561
sg28
I1
sg36
I0
sg29
g548
sg30
I0
sba(iMCTS
Action
p567
(dp568
g31
g561
sg28
I2
sg36
I0
sg29
g548
sg30
I0
sba(iMCTS
Action
p569
(dp570
g31
g561
sg28
I3
sg36
I0
sg29
g548
sg30
I0
sba(iMCTS
Action
p571
(dp572
g31
g561
sg28
I4
sg36
I0
sg29
g548
sg30
I0
sba(iMCTS
Action
p573
(dp574
g31
g561
sg28
I5
sg36
I0
sg29
g548
sg30
I0
sba(iMCTS
Action
p575
(dp576
g28
I6
sg29
g548
sg30
I1
sg31
g32
(g18
S'\xba\xa2n\x9b\xac\x9a<\xc0'
p577
tp578
Rp579
sg36
g32
(g18
S'\xba\xa2n\x9b\xac\x9a<\xc0'
p580
tp581
Rp582
sg40
g0
(g1
g2
Ntp583
Rp584
(dp585
g6
g575
sg7
g8
(g9
(I0
tp586
g11
tp587
Rp588
(I1
(I2
tp589
g18
I00
S'\x00\x00\x00\x00 @\x11\xc0\x00\x00\x00`\x1c\x15\x00@'
p590
tp591
bsg23
Nsg24
(lp592
(iMCTS
Action
p593
(dp594
g31
g8
(g9
(I0
tp595
g11
tp596
Rp597
(I1
(I1
I1
tp598
g77
I00
S'h\x9d\xc4\xc1'
p599
tp600
bsg28
I0
sg36
I0
sg29
g584
sg30
I0
sba(iMCTS
Action
p601
(dp602
g31
g597
sg28
I1
sg36
I0
sg29
g584
sg30
I0
sba(iMCTS
Action
p603
(dp604
g31
g597
sg28
I2
sg36
I0
sg29
g584
sg30
I0
sba(iMCTS
Action
p605
(dp606
g31
g597
sg28
I3
sg36
I0
sg29
g584
sg30
I0
sba(iMCTS
Action
p607
(dp608
g31
g597
sg28
I4
sg36
I0
sg29
g584
sg30
I0
sba(iMCTS
Action
p609
(dp610
g31
g597
sg28
I5
sg36
I0
sg29
g584
sg30
I0
sba(iMCTS
Action
p611
(dp612
g31
g597
sg28
I6
sg36
I0
sg29
g584
sg30
I0
sba(iMCTS
Action
p613
(dp614
g31
g597
sg28
I7
sg36
I0
sg29
g584
sg30
I0
sba(iMCTS
Action
p615
(dp616
g31
g597
sg28
I8
sg36
I0
sg29
g584
sg30
I0
sbasg98
g8
(g9
(I0
tp617
g11
tp618
Rp619
(I1
(I9
tp620
g77
I00
S'y\t#>\x87M\xf2=E\xa6\x1d>h\xa4\xd6=2\xed\xf0=iX\xeb=?\xffc=\xb4v\x97=\x9b\xf2\xcf='
p621
tp622
bsg105
g597
sg30
I0
sg106
I00
sg107
(lp623
sg109
F-4.0273377556902465
sg110
I9
sbsba(iMCTS
Action
p624
(dp625
g31
g561
sg28
I7
sg36
I0
sg29
g548
sg30
I0
sba(iMCTS
Action
p626
(dp627
g31
g561
sg28
I8
sg36
I0
sg29
g548
sg30
I0
sbasg98
g8
(g9
(I0
tp628
g11
tp629
Rp630
(I1
(I9
tp631
g77
I00
S'\xf9[B>\x0ba\xee=\x83y\x00>\xd5\xf7\xd2=\x99\x8b\xf0=\xd1A\xe3=\xcc\x1bt=\xa4\xe6\x9d=4:\xcd='
p632
tp633
bsg105
g561
sg30
I1
sg106
I00
sg107
(lp634
g32
(g18
S'\xba\xa2n\x9b\xac\x9a<\xc0'
p635
tp636
Rp637
asg109
F-3.8432063284697215
sg110
I9
sbsba(iMCTS
Action
p638
(dp639
g28
I6
sg29
g4
sg30
I1
sg31
g32
(g18
S'\xab\xc8\xber\xa1A=\xc0'
p640
tp641
Rp642
sg36
g32
(g18
S'\xab\xc8\xber\xa1A=\xc0'
p643
tp644
Rp645
sg40
g0
(g1
g2
Ntp646
Rp647
(dp648
g6
g638
sg7
g8
(g9
(I0
tp649
g11
tp650
Rp651
(I1
(I2
tp652
g18
I00
S'\x00\x00\x00\xe0\x82!\x12\xc0\x00\x00\x00\xa0\xfb\x84\xf9?'
p653
tp654
bsg23
Nsg24
(lp655
(iMCTS
Action
p656
(dp657
g31
g8
(g9
(I0
tp658
g11
tp659
Rp660
(I1
(I1
I1
tp661
g77
I00
S'\x10z\xc9\xc1'
p662
tp663
bsg28
I0
sg36
I0
sg29
g647
sg30
I0
sba(iMCTS
Action
p664
(dp665
g31
g660
sg28
I1
sg36
I0
sg29
g647
sg30
I0
sba(iMCTS
Action
p666
(dp667
g31
g660
sg28
I2
sg36
I0
sg29
g647
sg30
I0
sba(iMCTS
Action
p668
(dp669
g31
g660
sg28
I3
sg36
I0
sg29
g647
sg30
I0
sba(iMCTS
Action
p670
(dp671
g31
g660
sg28
I4
sg36
I0
sg29
g647
sg30
I0
sba(iMCTS
Action
p672
(dp673
g31
g660
sg28
I5
sg36
I0
sg29
g647
sg30
I0
sba(iMCTS
Action
p674
(dp675
g31
g660
sg28
I6
sg36
I0
sg29
g647
sg30
I0
sba(iMCTS
Action
p676
(dp677
g31
g660
sg28
I7
sg36
I0
sg29
g647
sg30
I0
sba(iMCTS
Action
p678
(dp679
g31
g660
sg28
I8
sg36
I0
sg29
g647
sg30
I0
sbasg98
g8
(g9
(I0
tp680
g11
tp681
Rp682
(I1
(I9
tp683
g77
I00
S'o \x16>\x17\xca\xed=b\x17.>\xd5\x19\xde="7\xf9=\xa3\x0b\xe4=\xc4\xdei=\rx\x8f=H\x02\xca='
p684
tp685
bsg105
g660
sg30
I0
sg106
I00
sg107
(lp686
sg109
F-4.071768924310771
sg110
I9
sbsba(iMCTS
Action
p687
(dp688
g28
I7
sg29
g4
sg30
I1
sg31
g32
(g18
S'\xaa\xa9+h\x13-<\xc0'
p689
tp690
Rp691
sg36
g32
(g18
S'\xaa\xa9+h\x13-<\xc0'
p692
tp693
Rp694
sg40
g0
(g1
g2
Ntp695
Rp696
(dp697
g6
g687
sg7
g8
(g9
(I0
tp698
g11
tp699
Rp700
(I1
(I2
tp701
g18
I00
S'\x00\x00\x00\x80\xd5\xdf\x0f\xc0\x00\x00\x00@0\xf6\x04@'
p702
tp703
bsg23
Nsg24
(lp704
(iMCTS
Action
p705
(dp706
g31
g8
(g9
(I0
tp707
g11
tp708
Rp709
(I1
(I1
I1
tp710
g77
I00
S'\xa0\x0b\xc1\xc1'
p711
tp712
bsg28
I0
sg36
I0
sg29
g696
sg30
I0
sba(iMCTS
Action
p713
(dp714
g31
g709
sg28
I1
sg36
I0
sg29
g696
sg30
I0
sba(iMCTS
Action
p715
(dp716
g31
g709
sg28
I2
sg36
I0
sg29
g696
sg30
I0
sba(iMCTS
Action
p717
(dp718
g31
g709
sg28
I3
sg36
I0
sg29
g696
sg30
I0
sba(iMCTS
Action
p719
(dp720
g31
g709
sg28
I4
sg36
I0
sg29
g696
sg30
I0
sba(iMCTS
Action
p721
(dp722
g31
g709
sg28
I5
sg36
I0
sg29
g696
sg30
I0
sba(iMCTS
Action
p723
(dp724
g31
g709
sg28
I6
sg36
I0
sg29
g696
sg30
I0
sba(iMCTS
Action
p725
(dp726
g31
g709
sg28
I7
sg36
I0
sg29
g696
sg30
I0
sba(iMCTS
Action
p727
(dp728
g31
g709
sg28
I8
sg36
I0
sg29
g696
sg30
I0
sbasg98
g8
(g9
(I0
tp729
g11
tp730
Rp731
(I1
(I9
tp732
g77
I00
S'"\x9d7>\x8c\xf9\xee=\xc0z\x08>\x06\xe5\xd5=A8\xf1=O\xb5\xe9=\xcd.n=\xaa\xb8\x9a=\n4\xce='
p733
tp734
bsg105
g709
sg30
I0
sg106
I00
sg107
(lp735
sg109
F-4.045401106510022
sg110
I9
sbsba(iMCTS
Action
p736
(dp737
g28
I8
sg29
g4
sg30
I2
sg31
g32
(g18
S'\x87\xeb\xa7\x98`\x89<\xc0'
p738
tp739
Rp740
sg36
g32
(g18
S'\x87\xeb\xa7\x98`\x89L\xc0'
p741
tp742
Rp743
sg40
g0
(g1
g2
Ntp744
Rp745
(dp746
g6
g736
sg7
g8
(g9
(I0
tp747
g11
tp748
Rp749
(I1
(I2
tp750
g18
I00
S'\x00\x00\x00\x00\xad\x04\n\xc0\x00\x00\x00`\xa6S\x0b@'
p751
tp752
bsg23
Nsg24
(lp753
(iMCTS
Action
p754
(dp755
g31
g8
(g9
(I0
tp756
g11
tp757
Rp758
(I1
(I1
I1
tp759
g77
I00
S'\x94\xd8\xb8\xc1'
p760
tp761
bsg28
I0
sg36
I0
sg29
g745
sg30
I0
sba(iMCTS
Action
p762
(dp763
g28
I1
sg29
g745
sg30
I1
sg31
g32
(g18
S'\xc4!)n\x8c\xf19\xc0'
p764
tp765
Rp766
sg36
g32
(g18
S'\xc4!)n\x8c\xf19\xc0'
p767
tp768
Rp769
sg40
g0
(g1
g2
Ntp770
Rp771
(dp772
g6
g762
sg7
g8
(g9
(I0
tp773
g11
tp774
Rp775
(I1
(I2
tp776
g18
I00
S'\x00\x00\x00\xa0\xfc\x88\x02\xc0\x00\x00\x00\xc0$\xb9\x10@'
p777
tp778
bsg23
Nsg24
(lp779
(iMCTS
Action
p780
(dp781
g31
g8
(g9
(I0
tp782
g11
tp783
Rp784
(I1
(I1
I1
tp785
g77
I00
S'$\xa7\xae\xc1'
p786
tp787
bsg28
I0
sg36
I0
sg29
g771
sg30
I0
sba(iMCTS
Action
p788
(dp789
g31
g784
sg28
I1
sg36
I0
sg29
g771
sg30
I0
sba(iMCTS
Action
p790
(dp791
g31
g784
sg28
I2
sg36
I0
sg29
g771
sg30
I0
sba(iMCTS
Action
p792
(dp793
g31
g784
sg28
I3
sg36
I0
sg29
g771
sg30
I0
sba(iMCTS
Action
p794
(dp795
g31
g784
sg28
I4
sg36
I0
sg29
g771
sg30
I0
sba(iMCTS
Action
p796
(dp797
g31
g784
sg28
I5
sg36
I0
sg29
g771
sg30
I0
sba(iMCTS
Action
p798
(dp799
g31
g784
sg28
I6
sg36
I0
sg29
g771
sg30
I0
sba(iMCTS
Action
p800
(dp801
g31
g784
sg28
I7
sg36
I0
sg29
g771
sg30
I0
sba(iMCTS
Action
p802
(dp803
g31
g784
sg28
I8
sg36
I0
sg29
g771
sg30
I0
sbasg98
g8
(g9
(I0
tp804
g11
tp805
Rp806
(I1
(I9
tp807
g77
I00
S'\xa911>i\x86\xef=\x1b;\xd2=\xe8I\xd6=UQ\x00>\xbc\xb1\xe1=\xc9\r\x82=i\\\xb1=\xaf\xd2\xef='
p808
tp809
bsg105
g784
sg30
I0
sg106
I00
sg107
(lp810
sg109
F-4.11193741325566
sg110
I9
sbsba(iMCTS
Action
p811
(dp812
g31
g758
sg28
I2
sg36
I0
sg29
g745
sg30
I0
sba(iMCTS
Action
p813
(dp814
g31
g758
sg28
I3
sg36
I0
sg29
g745
sg30
I0
sba(iMCTS
Action
p815
(dp816
g31
g758
sg28
I4
sg36
I0
sg29
g745
sg30
I0
sba(iMCTS
Action
p817
(dp818
g31
g758
sg28
I5
sg36
I0
sg29
g745
sg30
I0
sba(iMCTS
Action
p819
(dp820
g31
g758
sg28
I6
sg36
I0
sg29
g745
sg30
I0
sba(iMCTS
Action
p821
(dp822
g31
g758
sg28
I7
sg36
I0
sg29
g745
sg30
I0
sba(iMCTS
Action
p823
(dp824
g31
g758
sg28
I8
sg36
I0
sg29
g745
sg30
I0
sbasg98
g8
(g9
(I0
tp825
g11
tp826
Rp827
(I1
(I9
tp828
g77
I00
S'J\xa5C>A\xd3\xed=\x00\xb8\xeb=\xf8d\xd2=\xd6\xc0\xf2=u\t\xe1=J\x08z=3\x97\xa3=\x93_\xd8='
p829
tp830
bsg105
g758
sg30
I1
sg106
I00
sg107
(lp831
g32
(g18
S'\xc4!)n\x8c\xf19\xc0'
p832
tp833
Rp834
asg109
F-4.0119801506758845
sg110
I9
sbsbasg98
g8
(g9
(I0
tp835
g11
tp836
Rp837
(I1
(I9
tp838
g77
I00
S'\xf7*A>\xbcw\xef=\xcc)\x03>\xfcW\xd2=\xdd\xad\xef=m-\xe4=;\x95r=\x8d-\x9d=W3\xcb='
p839
tp840
bsg105
g8
(g9
(I0
tp841
g11
tp842
Rp843
(I1
(I1
I1
tp844
g77
I00
S'\x89\xcf\xb8\xc1'
p845
tp846
bsg30
I16
sg106
I00
sg107
(lp847
g32
(g18
S'\xe4\xac;\xff\xb65;\xc0'
p848
tp849
Rp850
ag32
(g18
S'rA\xf9L\x9d\xdd9\xc0'
p851
tp852
Rp853
ag32
(g18
S'\xd4\r\xba~\x1d\x92:\xc0'
p854
tp855
Rp856
ag32
(g18
S'X6\x1a\x18\x9c2:\xc0'
p857
tp858
Rp859
ag32
(g18
S'\xc5\x8e\xb4\xfe@\t;\xc0'
p860
tp861
Rp862
ag32
(g18
S'\xe4II\xab\x9eY;\xc0'
p863
tp864
Rp865
ag32
(g18
S'\xa5Z\x93\xa1#\x1e;\xc0'
p866
tp867
Rp868
ag32
(g18
S'\xaa\xa9+h\x13-<\xc0'
p869
tp870
Rp871
ag32
(g18
S'\xab\xc8\xber\xa1A=\xc0'
p872
tp873
Rp874
ag32
(g18
S'\x8dX\xb3`!W:\xc0'
p875
tp876
Rp877
ag32
(g18
S'\xe0n\x13^\x99\x15=\xc0'
p878
tp879
Rp880
ag32
(g18
S'\x05Q1\xc6&z=\xc0'
p881
tp882
Rp883
ag32
(g18
S'%Gx\x18\xaf\x0c>\xc0'
p884
tp885
Rp886
ag32
(g18
S'\xbf\x98\x11}D9@\xc0'
p887
tp888
Rp889
ag32
(g18
S'\x83\x17\xd2\x99\x90\xed;\xc0'
p890
tp891
Rp892
ag32
(g18
S'i|\xbc\x8f\x9d\xf4=\xc0'
p893
tp894
Rp895
asg109
F-3.783572326543767
sg110
I9
sb.