ccopy_reg
_reconstructor
p0
(cMCTS
State
p1
c__builtin__
object
p2
Ntp3
Rp4
(dp5
S'parent_action'
p6
NsS'index'
p7
cnumpy.core.multiarray
_reconstruct
p8
(cnumpy
ndarray
p9
(I0
tp10
S'b'
p11
tp12
Rp13
(I1
(I2
tp14
cnumpy
dtype
p15
(S'f8'
p16
I0
I1
tp17
Rp18
(I3
S'<'
p19
NNNI-1
I-1
I0
tp20
bI00
S'\x00\x00\x00\xc0\x03 \x0c\xc0\x00\x00\x00\x80c\xc8\xd7\xbf'
p21
tp22
bsS'Qa'
p23
NsS'child_actions'
p24
(lp25
(iMCTS
Action
p26
(dp27
S'index'
p28
I0
sS'S_old'
p29
cnumpy.core.multiarray
scalar
p30
(g18
S'\xda\xa2\x89Q)\xe7\xef?'
p31
tp32
Rp33
sS'parent_state'
p34
g4
sS'M_old'
p35
g30
(g18
S'b\xb8\xe6Y\x9f%!\xc0'
p36
tp37
Rp38
sS'M'
p39
g38
sS'n'
p40
I2
sS'Q'
p41
F-8.573481377996533
sS'S'
p42
g33
sS'W'
p43
g30
(g18
S'b\xb8\xe6Y\x9f%1\xc0'
p44
tp45
Rp46
sS'var'
p47
g30
(g18
S'\xda\xa2\x89Q)\xe7\xef?'
p48
tp49
Rp50
sS'child_state'
p51
g0
(g1
g2
Ntp52
Rp53
(dp54
g6
g26
sg7
g8
(g9
(I0
tp55
g11
tp56
Rp57
(I1
(I2
tp58
g18
I00
S'\x00\x00\x00\xc0\xd8/\x08\xc0\x00\x00\x00\x00\xc0\\\xe4?'
p59
tp60
bsg23
Nsg24
(lp61
(iMCTS
Action
p62
(dp63
g28
I0
sg29
I0
sg34
g53
sg35
g8
(g9
(I0
tp64
g11
tp65
Rp66
(I1
(I1
I1
tp67
g15
(S'f4'
p68
I0
I1
tp69
Rp70
(I3
S'<'
p71
NNNI-1
I-1
I0
tp72
bI00
S')\xf0\xaf\xc0'
p73
tp74
bsg40
I0
sg41
g66
sg43
I0
sg47
F1.0
sba(iMCTS
Action
p75
(dp76
g28
I1
sg29
I0
sg34
g53
sg35
g66
sg40
I0
sg41
g66
sg43
I0
sg47
F1.0
sba(iMCTS
Action
p77
(dp78
g28
I2
sg29
I0
sg34
g53
sg35
g66
sg40
I0
sg41
g66
sg43
I0
sg47
F1.0
sba(iMCTS
Action
p79
(dp80
g28
I3
sg29
I0
sg34
g53
sg35
g30
(g18
S'\xc6\x80\xdbC\xfa\xa3\x1b\xc0'
p81
tp82
Rp83
sg39
g83
sg40
I1
sg41
F-6.910134372970964
sg42
F0.0
sg43
g30
(g18
S'\xc6\x80\xdbC\xfa\xa3\x1b\xc0'
p84
tp85
Rp86
sg47
I0
sg51
g0
(g1
g2
Ntp87
Rp88
(dp89
g6
g79
sg7
g8
(g9
(I0
tp90
g11
tp91
Rp92
(I1
(I2
tp93
g18
I00
S'\x00\x00\x00\x00`\x04\x05\xc0\x00\x00\x00\x801\xe8\xf2?'
p94
tp95
bsg23
Nsg24
(lp96
(iMCTS
Action
p97
(dp98
g28
I0
sg29
I0
sg34
g88
sg35
g8
(g9
(I0
tp99
g11
tp100
Rp101
(I1
(I1
I1
tp102
g70
I00
S'\x1f\xe2\x97\xc0'
p103
tp104
bsg40
I0
sg41
g101
sg43
I0
sg47
F1.0
sba(iMCTS
Action
p105
(dp106
g28
I1
sg29
I0
sg34
g88
sg35
g101
sg40
I0
sg41
g101
sg43
I0
sg47
F1.0
sba(iMCTS
Action
p107
(dp108
g28
I2
sg29
I0
sg34
g88
sg35
g101
sg40
I0
sg41
g101
sg43
I0
sg47
F1.0
sba(iMCTS
Action
p109
(dp110
g28
I3
sg29
I0
sg34
g88
sg35
g101
sg40
I0
sg41
g101
sg43
I0
sg47
F1.0
sba(iMCTS
Action
p111
(dp112
g28
I4
sg29
I0
sg34
g88
sg35
g101
sg40
I0
sg41
g101
sg43
I0
sg47
F1.0
sba(iMCTS
Action
p113
(dp114
g28
I5
sg29
I0
sg34
g88
sg35
g101
sg40
I0
sg41
g101
sg43
I0
sg47
F1.0
sba(iMCTS
Action
p115
(dp116
g28
I6
sg29
I0
sg34
g88
sg35
g101
sg40
I0
sg41
g101
sg43
I0
sg47
F1.0
sba(iMCTS
Action
p117
(dp118
g28
I7
sg29
I0
sg34
g88
sg35
g101
sg40
I0
sg41
g101
sg43
I0
sg47
F1.0
sba(iMCTS
Action
p119
(dp120
g28
I8
sg29
I0
sg34
g88
sg35
g101
sg40
I0
sg41
g101
sg43
I0
sg47
F1.0
sbasS'priors'
p121
g8
(g9
(I0
tp122
g11
tp123
Rp124
(I1
(I9
tp125
g70
I00
S'e\xbe\x8f2\xc4\x1d\x06;\xdey\x7f?\xf3k\xe93\'\xa032\x12\x8e\x843\xf1\x9eD."0/.\xdakt1'
p126
tp127
bsS'V'
p128
g101
sg40
I0
sS'terminal'
p129
I00
sS'returns'
p130
(lp131
sS'r'
p132
F-2.1637817003940594
sS'na'
p133
I9
sbsba(iMCTS
Action
p134
(dp135
g28
I4
sg29
I0
sg34
g53
sg35
g66
sg40
I0
sg41
g66
sg43
I0
sg47
F1.0
sba(iMCTS
Action
p136
(dp137
g28
I5
sg29
I0
sg34
g53
sg35
g66
sg40
I0
sg41
g66
sg43
I0
sg47
F1.0
sba(iMCTS
Action
p138
(dp139
g28
I6
sg29
I0
sg34
g53
sg35
g66
sg40
I0
sg41
g66
sg43
I0
sg47
F1.0
sba(iMCTS
Action
p140
(dp141
g28
I7
sg29
I0
sg34
g53
sg35
g66
sg40
I0
sg41
g66
sg43
I0
sg47
F1.0
sba(iMCTS
Action
p142
(dp143
g28
I8
sg29
I0
sg34
g53
sg35
g66
sg40
I0
sg41
g66
sg43
I0
sg47
F1.0
sbasg121
g8
(g9
(I0
tp144
g11
tp145
Rp146
(I1
(I9
tp147
g70
I00
S'@\xd6\xb96\x8e\x8b,?\xb8\xe7\xa6>\x83~\n6F\xeef4\xc52\x985\xf6X\x0e2\x18\xb3P/\xd6\xf3\xcf2'
p148
tp149
bsg128
g66
sg40
I1
sg129
I00
sg130
(lp150
g83
asg132
F-2.3693809788493074
sg133
I9
sbsba(iMCTS
Action
p151
(dp152
g28
I1
sg29
g30
(g18
S'\xc1C\x85\xe2\xd0}5@'
p153
tp154
Rp155
sg34
g4
sg35
g30
(g18
S'S\x0bFh\xe6\x8d\x1f\xc0'
p156
tp157
Rp158
sg39
g158
sg40
I92
sg41
F-7.8885742466689655
sg42
g155
sg43
g30
(g18
S'!X\xf2\x9a\xfd\xad\x86\xc0'
p159
tp160
Rp161
sg47
g30
(g18
S'i!\xa2k\xd1:\xce?'
p162
tp163
Rp164
sg51
g0
(g1
g2
Ntp165
Rp166
(dp167
g6
g151
sg7
g8
(g9
(I0
tp168
g11
tp169
Rp170
(I1
(I2
tp171
g18
I00
S'\x00\x00\x00\x80\xbb`\x08\xc0\x00\x00\x00`*|\xd7\xbf'
p172
tp173
bsg23
Nsg24
(lp174
(iMCTS
Action
p175
(dp176
g28
I0
sg29
g30
(g18
S'\x82\xaaj\xeaz<\xf3?'
p177
tp178
Rp179
sg34
g166
sg35
g30
(g18
S'5\xf9\x07\xde\xc7?\x16\xc0'
p180
tp181
Rp182
sg39
g182
sg40
I5
sg41
F-5.562285870777761
sg42
g179
sg43
g30
(g18
S'\x82\xf7\x89\xd5\xb9\xcf;\xc0'
p183
tp184
Rp185
sg47
g30
(g18
S'\x82\xaaj\xeaz<\xd3?'
p186
tp187
Rp188
sg51
g0
(g1
g2
Ntp189
Rp190
(dp191
g6
g175
sg7
g8
(g9
(I0
tp192
g11
tp193
Rp194
(I1
(I2
tp195
g18
I00
S'\x00\x00\x00\x806\xb1\x04\xc0\x00\x00\x00\x00*2\xde?'
p196
tp197
bsg23
Nsg24
(lp198
(iMCTS
Action
p199
(dp200
g28
I0
sg29
I0
sg34
g190
sg35
g8
(g9
(I0
tp201
g11
tp202
Rp203
(I1
(I1
I1
tp204
g70
I00
S'\xb9\x1cQ\xc0'
p205
tp206
bsg40
I0
sg41
g203
sg43
I0
sg47
F1.0
sba(iMCTS
Action
p207
(dp208
g28
I1
sg29
g30
(g18
S'\xa4\x1b}\xacu\x92\xd9?'
p209
tp210
Rp211
sg34
g190
sg35
g30
(g18
S'\xb2\xa3pJf_\r\xc0'
p212
tp213
Rp214
sg39
g214
sg40
I2
sg41
F-3.67158182293175
sg42
g211
sg43
g30
(g18
S'\xb2\xa3pJf_\x1d\xc0'
p215
tp216
Rp217
sg47
g30
(g18
S'\xa4\x1b}\xacu\x92\xd9?'
p218
tp219
Rp220
sg51
g0
(g1
g2
Ntp221
Rp222
(dp223
g6
g207
sg7
g8
(g9
(I0
tp224
g11
tp225
Rp226
(I1
(I2
tp227
g18
I00
S'\x00\x00\x00\xc0\x81\x94\x00\xc0\x00\x00\x00\x80\xddw\xe5?'
p228
tp229
bsg23
Nsg24
(lp230
(iMCTS
Action
p231
(dp232
g28
I0
sg29
I0
sg34
g222
sg35
g8
(g9
(I0
tp233
g11
tp234
Rp235
(I1
(I1
I1
tp236
g70
I00
S'h\\\xe0\xbf'
p237
tp238
bsg40
I0
sg41
g235
sg43
I0
sg47
F1.0
sba(iMCTS
Action
p239
(dp240
g28
I1
sg29
I0
sg34
g222
sg35
g235
sg40
I0
sg41
g235
sg43
I0
sg47
F1.0
sba(iMCTS
Action
p241
(dp242
g28
I2
sg29
I0
sg34
g222
sg35
g235
sg40
I0
sg41
g235
sg43
I0
sg47
F1.0
sba(iMCTS
Action
p243
(dp244
g28
I3
sg29
I0
sg34
g222
sg35
g235
sg40
I0
sg41
g235
sg43
I0
sg47
F1.0
sba(iMCTS
Action
p245
(dp246
g28
I4
sg29
I0
sg34
g222
sg35
g30
(g18
S':\xf2\xbci\x90,\x05\xc0'
p247
tp248
Rp249
sg39
g249
sg40
I1
sg41
F-2.6467598210131458
sg42
F0.0
sg43
g30
(g18
S':\xf2\xbci\x90,\x05\xc0'
p250
tp251
Rp252
sg47
I0
sg51
g0
(g1
g2
Ntp253
Rp254
(dp255
g6
g245
sg7
g8
(g9
(I0
tp256
g11
tp257
Rp258
(I1
(I2
tp259
g18
I00
S'\x00\x00\x00@\xf68\xfd\xbf\x00\x00\x00\x805M\xe7?'
p260
tp261
bsg23
Nsg24
(lp262
(iMCTS
Action
p263
(dp264
g28
I0
sg29
I0
sg34
g254
sg35
g8
(g9
(I0
tp265
g11
tp266
Rp267
(I1
(I1
I1
tp268
g70
I00
S'\x10\xce\xb0\xbf'
p269
tp270
bsg40
I0
sg41
g267
sg43
I0
sg47
F1.0
sba(iMCTS
Action
p271
(dp272
g28
I1
sg29
I0
sg34
g254
sg35
g267
sg40
I0
sg41
g267
sg43
I0
sg47
F1.0
sba(iMCTS
Action
p273
(dp274
g28
I2
sg29
I0
sg34
g254
sg35
g267
sg40
I0
sg41
g267
sg43
I0
sg47
F1.0
sba(iMCTS
Action
p275
(dp276
g28
I3
sg29
I0
sg34
g254
sg35
g267
sg40
I0
sg41
g267
sg43
I0
sg47
F1.0
sba(iMCTS
Action
p277
(dp278
g28
I4
sg29
I0
sg34
g254
sg35
g267
sg40
I0
sg41
g267
sg43
I0
sg47
F1.0
sba(iMCTS
Action
p279
(dp280
g28
I5
sg29
I0
sg34
g254
sg35
g267
sg40
I0
sg41
g267
sg43
I0
sg47
F1.0
sba(iMCTS
Action
p281
(dp282
g28
I6
sg29
I0
sg34
g254
sg35
g267
sg40
I0
sg41
g267
sg43
I0
sg47
F1.0
sba(iMCTS
Action
p283
(dp284
g28
I7
sg29
I0
sg34
g254
sg35
g267
sg40
I0
sg41
g267
sg43
I0
sg47
F1.0
sba(iMCTS
Action
p285
(dp286
g28
I8
sg29
I0
sg34
g254
sg35
g267
sg40
I0
sg41
g267
sg43
I0
sg47
F1.0
sbasg121
g8
(g9
(I0
tp287
g11
tp288
Rp289
(I1
(I9
tp290
g70
I00
S'\xc51\x8336\t\x16=i\x9fv?\xf9\xdc\xd83N$\xa11#\xa4G3\x16\xa2\x10-\xfa\xbd\x8e.\xc8d\xbc0'
p291
tp292
bsg128
g267
sg40
I0
sg129
I00
sg130
(lp293
sg132
F-1.265471292570763
sg133
I9
sbsba(iMCTS
Action
p294
(dp295
g28
I5
sg29
I0
sg34
g222
sg35
g235
sg40
I0
sg41
g235
sg43
I0
sg47
F1.0
sba(iMCTS
Action
p296
(dp297
g28
I6
sg29
I0
sg34
g222
sg35
g235
sg40
I0
sg41
g235
sg43
I0
sg47
F1.0
sba(iMCTS
Action
p298
(dp299
g28
I7
sg29
I0
sg34
g222
sg35
g235
sg40
I0
sg41
g235
sg43
I0
sg47
F1.0
sba(iMCTS
Action
p300
(dp301
g28
I8
sg29
I0
sg34
g222
sg35
g235
sg40
I0
sg41
g235
sg43
I0
sg47
F1.0
sbasg121
g8
(g9
(I0
tp302
g11
tp303
Rp304
(I1
(I9
tp305
g70
I00
S'\xa1{\xaf4m\x1a9>[\xb9Q?\xb5\xa0o4\xfd7=2\xd1"\xda3.\xc06.zzD.\x9d\xad\x071'
p306
tp307
bsg128
g235
sg40
I1
sg129
I00
sg130
(lp308
g249
asg132
F-1.4717919049483705
sg133
I9
sbsba(iMCTS
Action
p309
(dp310
g28
I2
sg29
g30
(g18
S'.Tk\xf3\x17D\xe3?'
p311
tp312
Rp313
sg34
g190
sg35
g30
(g18
S'\xa9\x1eyW\xa9\x81\x0e\xc0'
p314
tp315
Rp316
sg39
g316
sg40
I2
sg41
F-3.8133112748945064
sg42
g313
sg43
g30
(g18
S'\xa9\x1eyW\xa9\x81\x1e\xc0'
p317
tp318
Rp319
sg47
g30
(g18
S'.Tk\xf3\x17D\xe3?'
p320
tp321
Rp322
sg51
g0
(g1
g2
Ntp323
Rp324
(dp325
g6
g309
sg7
g8
(g9
(I0
tp326
g11
tp327
Rp328
(I1
(I2
tp329
g18
I00
S'\x00\x00\x00\xc0\x93\x94\x01\xc0\x00\x00\x00\x00\xd0x\x8a\xbf'
p330
tp331
bsg23
Nsg24
(lp332
(iMCTS
Action
p333
(dp334
g28
I0
sg29
I0
sg34
g324
sg35
g8
(g9
(I0
tp335
g11
tp336
Rp337
(I1
(I1
I1
tp338
g70
I00
S'`\xcf\xe1\xbf'
p339
tp340
bsg40
I0
sg41
g337
sg43
I0
sg47
F1.0
sba(iMCTS
Action
p341
(dp342
g28
I1
sg29
I0
sg34
g324
sg35
g337
sg40
I0
sg41
g337
sg43
I0
sg47
F1.0
sba(iMCTS
Action
p343
(dp344
g28
I2
sg29
I0
sg34
g324
sg35
g337
sg40
I0
sg41
g337
sg43
I0
sg47
F1.0
sba(iMCTS
Action
p345
(dp346
g28
I3
sg29
I0
sg34
g324
sg35
g337
sg40
I0
sg41
g337
sg43
I0
sg47
F1.0
sba(iMCTS
Action
p347
(dp348
g28
I4
sg29
I0
sg34
g324
sg35
g337
sg40
I0
sg41
g337
sg43
I0
sg47
F1.0
sba(iMCTS
Action
p349
(dp350
g28
I5
sg29
I0
sg34
g324
sg35
g337
sg40
I0
sg41
g337
sg43
I0
sg47
F1.0
sba(iMCTS
Action
p351
(dp352
g28
I6
sg29
I0
sg34
g324
sg35
g337
sg40
I0
sg41
g337
sg43
I0
sg47
F1.0
sba(iMCTS
Action
p353
(dp354
g28
I7
sg29
I0
sg34
g324
sg35
g337
sg40
I0
sg41
g337
sg43
I0
sg47
F1.0
sba(iMCTS
Action
p355
(dp356
g28
I8
sg29
I0
sg34
g324
sg35
g30
(g18
S'\x9f\xa4\xde\xddH\xe4\x06\xc0'
p357
tp358
Rp359
sg39
g359
sg40
I1
sg41
F-2.86146710715964
sg42
F0.0
sg43
g30
(g18
S'\x9f\xa4\xde\xddH\xe4\x06\xc0'
p360
tp361
Rp362
sg47
I0
sg51
g0
(g1
g2
Ntp363
Rp364
(dp365
g6
g355
sg7
g8
(g9
(I0
tp366
g11
tp367
Rp368
(I1
(I2
tp369
g18
I00
S'\x00\x00\x00@\xd4q\x00\xc0\x00\x00\x00\x00\xa73\xd3?'
p370
tp371
bsg23
Nsg24
(lp372
(iMCTS
Action
p373
(dp374
g28
I0
sg29
I0
sg34
g364
sg35
g8
(g9
(I0
tp375
g11
tp376
Rp377
(I1
(I1
I1
tp378
g70
I00
S'\x1e!\xbe\xbf'
p379
tp380
bsg40
I0
sg41
g377
sg43
I0
sg47
F1.0
sba(iMCTS
Action
p381
(dp382
g28
I1
sg29
I0
sg34
g364
sg35
g377
sg40
I0
sg41
g377
sg43
I0
sg47
F1.0
sba(iMCTS
Action
p383
(dp384
g28
I2
sg29
I0
sg34
g364
sg35
g377
sg40
I0
sg41
g377
sg43
I0
sg47
F1.0
sba(iMCTS
Action
p385
(dp386
g28
I3
sg29
I0
sg34
g364
sg35
g377
sg40
I0
sg41
g377
sg43
I0
sg47
F1.0
sba(iMCTS
Action
p387
(dp388
g28
I4
sg29
I0
sg34
g364
sg35
g377
sg40
I0
sg41
g377
sg43
I0
sg47
F1.0
sba(iMCTS
Action
p389
(dp390
g28
I5
sg29
I0
sg34
g364
sg35
g377
sg40
I0
sg41
g377
sg43
I0
sg47
F1.0
sba(iMCTS
Action
p391
(dp392
g28
I6
sg29
I0
sg34
g364
sg35
g377
sg40
I0
sg41
g377
sg43
I0
sg47
F1.0
sba(iMCTS
Action
p393
(dp394
g28
I7
sg29
I0
sg34
g364
sg35
g377
sg40
I0
sg41
g377
sg43
I0
sg47
F1.0
sba(iMCTS
Action
p395
(dp396
g28
I8
sg29
I0
sg34
g364
sg35
g377
sg40
I0
sg41
g377
sg43
I0
sg47
F1.0
sbasg121
g8
(g9
(I0
tp397
g11
tp398
Rp399
(I1
(I9
tp400
g70
I00
S'\xe7\xb1\x967l\xa9w?\x02V\x05=\x8c\n\x934y\xd5:2\xef\xfd\x044\x94\x9b\x98/\xa7\x88\xd2-\xef\xd1\xad/'
p401
tp402
bsg128
g377
sg40
I0
sg129
I00
sg130
(lp403
sg132
F-1.3760814508028285
sg133
I9
sbsbasg121
g8
(g9
(I0
tp404
g11
tp405
Rp406
(I1
(I9
tp407
g70
I00
S'\x8a\xc7\x9c9%O\x7f?\x9d9\x1d;\xad\xe4\xb14\xa20o2\xce\x93/4$\xa5\xbb0Ky\xf3-\x1b\xf2\x08/'
p408
tp409
bsg128
g337
sg40
I1
sg129
I00
sg130
(lp410
g359
asg132
F-1.5005071799328507
sg133
I9
sbsba(iMCTS
Action
p411
(dp412
g28
I3
sg29
I0
sg34
g190
sg35
g203
sg40
I0
sg41
g203
sg43
I0
sg47
F1.0
sba(iMCTS
Action
p413
(dp414
g28
I4
sg29
I0
sg34
g190
sg35
g203
sg40
I0
sg41
g203
sg43
I0
sg47
F1.0
sba(iMCTS
Action
p415
(dp416
g28
I5
sg29
I0
sg34
g190
sg35
g203
sg40
I0
sg41
g203
sg43
I0
sg47
F1.0
sba(iMCTS
Action
p417
(dp418
g28
I6
sg29
I0
sg34
g190
sg35
g203
sg40
I0
sg41
g203
sg43
I0
sg47
F1.0
sba(iMCTS
Action
p419
(dp420
g28
I7
sg29
I0
sg34
g190
sg35
g203
sg40
I0
sg41
g203
sg43
I0
sg47
F1.0
sba(iMCTS
Action
p421
(dp422
g28
I8
sg29
I0
sg34
g190
sg35
g203
sg40
I0
sg41
g203
sg43
I0
sg47
F1.0
sbasg121
g8
(g9
(I0
tp423
g11
tp424
Rp425
(I1
(I9
tp426
g70
I00
S'_\xce\xd56\xe6\xf2^?y2\x04>i\x80$5P\xe7&3G`\xa44=\xa1w0\xc3\xa6-.r{?1'
p427
tp428
bsg128
g203
sg40
I4
sg129
I00
sg130
(lp429
g30
(g18
S'\x95*\x92U\x01\xcc\t\xc0'
p430
tp431
Rp432
ag30
(g18
S'h\x8e\xa7\x9fey\x10\xc0'
p433
tp434
Rp435
ag30
(g18
S'Z\xcc\x89\xe8\xff\x1d\n\xc0'
p436
tp437
Rp438
ag30
(g18
S'|84c\xa9r\x11\xc0'
p439
tp440
Rp441
asg132
F-1.9148530132848318
sg133
I9
sbsba(iMCTS
Action
p442
(dp443
g28
I1
sg29
g30
(g18
S'u3^U\x9bM#@'
p444
tp445
Rp446
sg34
g166
sg35
g30
(g18
S'\x9d\x18\xd7x|\xbd\x15\xc0'
p447
tp448
Rp449
sg39
g449
sg40
I79
sg41
F-5.435045135620524
sg42
g446
sg43
g30
(g18
S'b\x82)\xa5\xe5\xd5z\xc0'
p450
tp451
Rp452
sg47
g30
(g18
S'\x02[\xe9\xacM\xad\xbf?'
p453
tp454
Rp455
sg51
g0
(g1
g2
Ntp456
Rp457
(dp458
g6
g442
sg7
g8
(g9
(I0
tp459
g11
tp460
Rp461
(I1
(I2
tp462
g18
I00
S'\x00\x00\x00@\xc1\xb2\x04\xc0\x00\x00\x00@\x8f&\xd7\xbf'
p463
tp464
bsg23
Nsg24
(lp465
(iMCTS
Action
p466
(dp467
g28
I0
sg29
g30
(g18
S'"\xe5\xf3\xb3\xa0\xc8\xde?'
p468
tp469
Rp470
sg34
g457
sg35
g30
(g18
S'0\x97\x01>\x1f5\x0c\xc0'
p471
tp472
Rp473
sg39
g473
sg40
I5
sg41
F-3.525938496039906
sg42
g470
sg43
g30
(g18
S'~\xfe\xc0\x863\xa11\xc0'
p474
tp475
Rp476
sg47
g30
(g18
S'"\xe5\xf3\xb3\xa0\xc8\xbe?'
p477
tp478
Rp479
sg51
g0
(g1
g2
Ntp480
Rp481
(dp482
g6
g466
sg7
g8
(g9
(I0
tp483
g11
tp484
Rp485
(I1
(I2
tp486
g18
I00
S'\x00\x00\x00\xe0\x9b)\x01\xc0\x00\x00\x00\x00\xe1{\xd4?'
p487
tp488
bsg23
Nsg24
(lp489
(iMCTS
Action
p490
(dp491
g28
I0
sg29
I0
sg34
g481
sg35
g30
(g18
S'\xcf\xb3S\t\x83%\x03\xc0'
p492
tp493
Rp494
sg39
g494
sg40
I1
sg41
F-2.3933163384121836
sg42
F0.0
sg43
g30
(g18
S'\xcf\xb3S\t\x83%\x03\xc0'
p495
tp496
Rp497
sg47
I0
sg51
g0
(g1
g2
Ntp498
Rp499
(dp500
g6
g490
sg7
g8
(g9
(I0
tp501
g11
tp502
Rp503
(I1
(I2
tp504
g18
I00
S'\x00\x00\x00\x80\xa9+\xf7\xbf\x00\x00\x00\x80\x1c\xfd\xee?'
p505
tp506
bsg23
Nsg24
(lp507
(iMCTS
Action
p508
(dp509
g28
I0
sg29
I0
sg34
g499
sg35
g8
(g9
(I0
tp510
g11
tp511
Rp512
(I1
(I1
I1
tp513
g70
I00
S'\x9a\xca\xaa\xbf'
p514
tp515
bsg40
I0
sg41
g512
sg43
I0
sg47
F1.0
sba(iMCTS
Action
p516
(dp517
g28
I1
sg29
I0
sg34
g499
sg35
g512
sg40
I0
sg41
g512
sg43
I0
sg47
F1.0
sba(iMCTS
Action
p518
(dp519
g28
I2
sg29
I0
sg34
g499
sg35
g512
sg40
I0
sg41
g512
sg43
I0
sg47
F1.0
sba(iMCTS
Action
p520
(dp521
g28
I3
sg29
I0
sg34
g499
sg35
g512
sg40
I0
sg41
g512
sg43
I0
sg47
F1.0
sba(iMCTS
Action
p522
(dp523
g28
I4
sg29
I0
sg34
g499
sg35
g512
sg40
I0
sg41
g512
sg43
I0
sg47
F1.0
sba(iMCTS
Action
p524
(dp525
g28
I5
sg29
I0
sg34
g499
sg35
g512
sg40
I0
sg41
g512
sg43
I0
sg47
F1.0
sba(iMCTS
Action
p526
(dp527
g28
I6
sg29
I0
sg34
g499
sg35
g512
sg40
I0
sg41
g512
sg43
I0
sg47
F1.0
sba(iMCTS
Action
p528
(dp529
g28
I7
sg29
I0
sg34
g499
sg35
g512
sg40
I0
sg41
g512
sg43
I0
sg47
F1.0
sba(iMCTS
Action
p530
(dp531
g28
I8
sg29
I0
sg34
g499
sg35
g512
sg40
I0
sg41
g512
sg43
I0
sg47
F1.0
sbasg121
g8
(g9
(I0
tp532
g11
tp533
Rp534
(I1
(I9
tp535
g70
I00
S'v\xab\xd51\xe7\xee\x1c;\x0ec\x7f?\xd9\x90\x953}\xddk1\xd9\r\x033\x12\x837+\xbe\xde%0\xd3\x13&2'
p536
tp537
bsg128
g512
sg40
I0
sg129
I00
sg130
(lp538
sg132
F-1.0590084294003428
sg133
I9
sbsba(iMCTS
Action
p539
(dp540
g28
I1
sg29
g30
(g18
S'\x15o\x0c\x180n\xc1?'
p541
tp542
Rp543
sg34
g481
sg35
g30
(g18
S'\xde\x81\xc1\x18A\x98\x01\xc0'
p544
tp545
Rp546
sg39
g546
sg40
I2
sg41
F-2.1993429121068706
sg42
g543
sg43
g30
(g18
S'\xde\x81\xc1\x18A\x98\x11\xc0'
p547
tp548
Rp549
sg47
g30
(g18
S'\x15o\x0c\x180n\xc1?'
p550
tp551
Rp552
sg51
g0
(g1
g2
Ntp553
Rp554
(dp555
g6
g539
sg7
g8
(g9
(I0
tp556
g11
tp557
Rp558
(I1
(I2
tp559
g18
I00
S'\x00\x00\x00\x00\x11}\xfa\xbf\x00\x00\x00\x00T\xdf\xde?'
p560
tp561
bsg23
Nsg24
(lp562
(iMCTS
Action
p563
(dp564
g28
I0
sg29
I0
sg34
g554
sg35
g8
(g9
(I0
tp565
g11
tp566
Rp567
(I1
(I1
I1
tp568
g70
I00
S'jDh\xbf'
p569
tp570
bsg40
I0
sg41
g567
sg43
I0
sg47
F1.0
sba(iMCTS
Action
p571
(dp572
g28
I1
sg29
I0
sg34
g554
sg35
g567
sg40
I0
sg41
g567
sg43
I0
sg47
F1.0
sba(iMCTS
Action
p573
(dp574
g28
I2
sg29
I0
sg34
g554
sg35
g567
sg40
I0
sg41
g567
sg43
I0
sg47
F1.0
sba(iMCTS
Action
p575
(dp576
g28
I3
sg29
I0
sg34
g554
sg35
g567
sg40
I0
sg41
g567
sg43
I0
sg47
F1.0
sba(iMCTS
Action
p577
(dp578
g28
I4
sg29
I0
sg34
g554
sg35
g567
sg40
I0
sg41
g567
sg43
I0
sg47
F1.0
sba(iMCTS
Action
p579
(dp580
g28
I5
sg29
I0
sg34
g554
sg35
g30
(g18
S'z\x9a@\x07\xdd\xdd\xf6\xbf'
p581
tp582
Rp583
sg39
g583
sg40
I1
sg41
F-1.4291658671660614
sg42
F0.0
sg43
g30
(g18
S'z\x9a@\x07\xdd\xdd\xf6\xbf'
p584
tp585
Rp586
sg47
I0
sg51
g0
(g1
g2
Ntp587
Rp588
(dp589
g6
g579
sg7
g8
(g9
(I0
tp590
g11
tp591
Rp592
(I1
(I2
tp593
g18
I00
S'\x00\x00\x00\x00\xc8\x9e\xf7\xbf\x00\x00\x00\x00?6\xd7?'
p594
tp595
bsg23
Nsg24
(lp596
(iMCTS
Action
p597
(dp598
g28
I0
sg29
I0
sg34
g588
sg35
g8
(g9
(I0
tp599
g11
tp600
Rp601
(I1
(I1
I1
tp602
g70
I00
S'\xd1\xbf\x17\xbf'
p603
tp604
bsg40
I0
sg41
g601
sg43
I0
sg47
F1.0
sba(iMCTS
Action
p605
(dp606
g28
I1
sg29
I0
sg34
g588
sg35
g601
sg40
I0
sg41
g601
sg43
I0
sg47
F1.0
sba(iMCTS
Action
p607
(dp608
g28
I2
sg29
I0
sg34
g588
sg35
g601
sg40
I0
sg41
g601
sg43
I0
sg47
F1.0
sba(iMCTS
Action
p609
(dp610
g28
I3
sg29
I0
sg34
g588
sg35
g601
sg40
I0
sg41
g601
sg43
I0
sg47
F1.0
sba(iMCTS
Action
p611
(dp612
g28
I4
sg29
I0
sg34
g588
sg35
g601
sg40
I0
sg41
g601
sg43
I0
sg47
F1.0
sba(iMCTS
Action
p613
(dp614
g28
I5
sg29
I0
sg34
g588
sg35
g601
sg40
I0
sg41
g601
sg43
I0
sg47
F1.0
sba(iMCTS
Action
p615
(dp616
g28
I6
sg29
I0
sg34
g588
sg35
g601
sg40
I0
sg41
g601
sg43
I0
sg47
F1.0
sba(iMCTS
Action
p617
(dp618
g28
I7
sg29
I0
sg34
g588
sg35
g601
sg40
I0
sg41
g601
sg43
I0
sg47
F1.0
sba(iMCTS
Action
p619
(dp620
g28
I8
sg29
I0
sg34
g588
sg35
g601
sg40
I0
sg41
g601
sg43
I0
sg47
F1.0
sbasg121
g8
(g9
(I0
tp621
g11
tp622
Rp623
(I1
(I9
tp624
g70
I00
S'\xa7\x06\x9b7\xde\x98C?l\x97q>%\xf9>5\x8d,\xe82\xeb\x8d\xa34T\xa9\xde/(\x00\xdc/\xaa\xb4\xd70'
p625
tp626
bsg128
g601
sg40
I0
sg129
I00
sg130
(lp627
sg132
F-0.836395231084366
sg133
I9
sbsba(iMCTS
Action
p628
(dp629
g28
I6
sg29
I0
sg34
g554
sg35
g567
sg40
I0
sg41
g567
sg43
I0
sg47
F1.0
sba(iMCTS
Action
p630
(dp631
g28
I7
sg29
I0
sg34
g554
sg35
g567
sg40
I0
sg41
g567
sg43
I0
sg47
F1.0
sba(iMCTS
Action
p632
(dp633
g28
I8
sg29
I0
sg34
g554
sg35
g567
sg40
I0
sg41
g567
sg43
I0
sg47
F1.0
sbasg121
g8
(g9
(I0
tp634
g11
tp635
Rp636
(I1
(I9
tp637
g70
I00
S'\x97\xf0f6\xd2<\x02?\xd2\x85\xfb>\xbcA\xf34B\xab\x942\xdcbS4\xf3\x03\x03/~\x18V/8\x05\xc60'
p638
tp639
bsg128
g567
sg40
I1
sg129
I00
sg130
(lp640
g583
asg132
F-1.0311130206495416
sg133
I9
sbsba(iMCTS
Action
p641
(dp642
g28
I2
sg29
I0
sg34
g481
sg35
g30
(g18
S'\x0e\xb3@\x08EH\xfd\xbf'
p643
tp644
Rp645
sg39
g645
sg40
I1
sg41
F-1.830143959271655
sg42
F0.0
sg43
g30
(g18
S'\x0e\xb3@\x08EH\xfd\xbf'
p646
tp647
Rp648
sg47
I0
sg51
g0
(g1
g2
Ntp649
Rp650
(dp651
g6
g641
sg7
g8
(g9
(I0
tp652
g11
tp653
Rp654
(I1
(I2
tp655
g18
I00
S'\x00\x00\x00\x80]\xcf\xfb\xbf\x00\x00\x00\x00\xbc\x1b\xa0\xbf'
p656
tp657
bsg23
Nsg24
(lp658
(iMCTS
Action
p659
(dp660
g28
I0
sg29
I0
sg34
g650
sg35
g8
(g9
(I0
tp661
g11
tp662
Rp663
(I1
(I1
I1
tp664
g70
I00
S'+dF\xbf'
p665
tp666
bsg40
I0
sg41
g663
sg43
I0
sg47
F1.0
sba(iMCTS
Action
p667
(dp668
g28
I1
sg29
I0
sg34
g650
sg35
g663
sg40
I0
sg41
g663
sg43
I0
sg47
F1.0
sba(iMCTS
Action
p669
(dp670
g28
I2
sg29
I0
sg34
g650
sg35
g663
sg40
I0
sg41
g663
sg43
I0
sg47
F1.0
sba(iMCTS
Action
p671
(dp672
g28
I3
sg29
I0
sg34
g650
sg35
g663
sg40
I0
sg41
g663
sg43
I0
sg47
F1.0
sba(iMCTS
Action
p673
(dp674
g28
I4
sg29
I0
sg34
g650
sg35
g663
sg40
I0
sg41
g663
sg43
I0
sg47
F1.0
sba(iMCTS
Action
p675
(dp676
g28
I5
sg29
I0
sg34
g650
sg35
g663
sg40
I0
sg41
g663
sg43
I0
sg47
F1.0
sba(iMCTS
Action
p677
(dp678
g28
I6
sg29
I0
sg34
g650
sg35
g663
sg40
I0
sg41
g663
sg43
I0
sg47
F1.0
sba(iMCTS
Action
p679
(dp680
g28
I7
sg29
I0
sg34
g650
sg35
g663
sg40
I0
sg41
g663
sg43
I0
sg47
F1.0
sba(iMCTS
Action
p681
(dp682
g28
I8
sg29
I0
sg34
g650
sg35
g663
sg40
I0
sg41
g663
sg43
I0
sg47
F1.0
sbasg121
g8
(g9
(I0
tp683
g11
tp684
Rp685
(I1
(I9
tp686
g70
I00
S'}0\xfe9Q}\x7f?t\xc7\xc5:s\x95\x9b4\x9b\xef)2\x19C\x0c4\xb8\xf4\x9a0\x9fg\x0b.\xe0T\x91.'
p687
tp688
bsg128
g663
sg40
I0
sg129
I00
sg130
(lp689
sg132
F-1.0551780173656797
sg133
I9
sbsba(iMCTS
Action
p690
(dp691
g28
I3
sg29
I0
sg34
g481
sg35
g8
(g9
(I0
tp692
g11
tp693
Rp694
(I1
(I1
I1
tp695
g70
I00
S'\x94o\xd7\xbf'
p696
tp697
bsg40
I0
sg41
g694
sg43
I0
sg47
F1.0
sba(iMCTS
Action
p698
(dp699
g28
I4
sg29
I0
sg34
g481
sg35
g694
sg40
I0
sg41
g694
sg43
I0
sg47
F1.0
sba(iMCTS
Action
p700
(dp701
g28
I5
sg29
I0
sg34
g481
sg35
g694
sg40
I0
sg41
g694
sg43
I0
sg47
F1.0
sba(iMCTS
Action
p702
(dp703
g28
I6
sg29
I0
sg34
g481
sg35
g694
sg40
I0
sg41
g694
sg43
I0
sg47
F1.0
sba(iMCTS
Action
p704
(dp705
g28
I7
sg29
I0
sg34
g481
sg35
g694
sg40
I0
sg41
g694
sg43
I0
sg47
F1.0
sba(iMCTS
Action
p706
(dp707
g28
I8
sg29
I0
sg34
g481
sg35
g694
sg40
I0
sg41
g694
sg43
I0
sg47
F1.0
sbasg121
g8
(g9
(I0
tp708
g11
tp709
Rp710
(I1
(I9
tp711
g70
I00
S"\xa0Q\x817\xba\x08v?\xb6c\x1f=c\xe9\x9d4\x19\x96U2Y(\x114\xd0-\xaa/\xc1\xe8\xc7-\x95'\xe5/"
p712
tp713
bsg128
g694
sg40
I4
sg129
I00
sg130
(lp714
g645
ag494
ag30
(g18
S'~\xb6\xe2\xfd\xb6\x03\xff\xbf'
p715
tp716
Rp717
ag30
(g18
S'|\xa8\x91\xb2\xa6\xae\x03\xc0'
p718
tp719
Rp720
asg132
F-1.4648907528310442
sg133
I9
sbsba(iMCTS
Action
p721
(dp722
g28
I1
sg29
g30
(g18
S'S\xfbSS\xf0h\x10@'
p723
tp724
Rp725
sg34
g457
sg35
g30
(g18
S'<\xf0\x91k:\x9f\x0b\xc0'
p726
tp727
Rp728
sg39
g728
sg40
I66
sg41
F-3.452748146430195
sg42
g725
sg43
g30
(g18
S'\xc0\x7f\xee>4|l\xc0'
p729
tp730
Rp731
sg47
g30
(g18
S'\xe7\x1a\xf8\x16O(\xb0?'
p732
tp733
Rp734
sg51
g0
(g1
g2
Ntp735
Rp736
(dp737
g6
g721
sg7
g8
(g9
(I0
tp738
g11
tp739
Rp740
(I1
(I2
tp741
g18
I00
S'\x00\x00\x00\x00T\xf7\x00\xc0\x00\x00\x00\xc0y\t\xd7\xbf'
p742
tp743
bsg23
Nsg24
(lp744
(iMCTS
Action
p745
(dp746
g28
I0
sg29
g30
(g18
S'\xa1\xb9\xa0e\xa2>\xd6?'
p747
tp748
Rp749
sg34
g736
sg35
g30
(g18
S'\x08\x16\xb5W1\xde\x01\xc0'
p750
tp751
Rp752
sg39
g752
sg40
I2
sg41
F-2.2334925510538177
sg42
g749
sg43
g30
(g18
S'\x08\x16\xb5W1\xde\x11\xc0'
p753
tp754
Rp755
sg47
g30
(g18
S'\xa1\xb9\xa0e\xa2>\xd6?'
p756
tp757
Rp758
sg51
g0
(g1
g2
Ntp759
Rp760
(dp761
g6
g745
sg7
g8
(g9
(I0
tp762
g11
tp763
Rp764
(I1
(I2
tp765
g18
I00
S'\x00\x00\x00\x00?;\xfb\xbf\x00\x00\x00\x00\xba\xf6\xc8?'
p766
tp767
bsg23
Nsg24
(lp768
(iMCTS
Action
p769
(dp770
g28
I0
sg29
I0
sg34
g760
sg35
g8
(g9
(I0
tp771
g11
tp772
Rp773
(I1
(I1
I1
tp774
g70
I00
S'\\:K\xbf'
p775
tp776
bsg40
I0
sg41
g773
sg43
I0
sg47
F1.0
sba(iMCTS
Action
p777
(dp778
g28
I1
sg29
I0
sg34
g760
sg35
g773
sg40
I0
sg41
g773
sg43
I0
sg47
F1.0
sba(iMCTS
Action
p779
(dp780
g28
I2
sg29
I0
sg34
g760
sg35
g773
sg40
I0
sg41
g773
sg43
I0
sg47
F1.0
sba(iMCTS
Action
p781
(dp782
g28
I3
sg29
I0
sg34
g760
sg35
g773
sg40
I0
sg41
g773
sg43
I0
sg47
F1.0
sba(iMCTS
Action
p783
(dp784
g28
I4
sg29
I0
sg34
g760
sg35
g773
sg40
I0
sg41
g773
sg43
I0
sg47
F1.0
sba(iMCTS
Action
p785
(dp786
g28
I5
sg29
I0
sg34
g760
sg35
g773
sg40
I0
sg41
g773
sg43
I0
sg47
F1.0
sba(iMCTS
Action
p787
(dp788
g28
I6
sg29
I0
sg34
g760
sg35
g30
(g18
S'\xaa\xc7r9\xb4\n\xfa\xbf'
p789
tp790
Rp791
sg39
g791
sg40
I1
sg41
F-1.627613281638768
sg42
F0.0
sg43
g30
(g18
S'\xaa\xc7r9\xb4\n\xfa\xbf'
p792
tp793
Rp794
sg47
I0
sg51
g0
(g1
g2
Ntp795
Rp796
(dp797
g6
g787
sg7
g8
(g9
(I0
tp798
g11
tp799
Rp800
(I1
(I2
tp801
g18
I00
S'\x00\x00\x00\x80h\xf0\xf8\xbf\x00\x00\x00\x00\xba\xea\xd8?'
p802
tp803
bsg23
Nsg24
(lp804
(iMCTS
Action
p805
(dp806
g28
I0
sg29
I0
sg34
g796
sg35
g8
(g9
(I0
tp807
g11
tp808
Rp809
(I1
(I1
I1
tp810
g70
I00
S'\xa6\xa95\xbf'
p811
tp812
bsg40
I0
sg41
g809
sg43
I0
sg47
F1.0
sba(iMCTS
Action
p813
(dp814
g28
I1
sg29
I0
sg34
g796
sg35
g809
sg40
I0
sg41
g809
sg43
I0
sg47
F1.0
sba(iMCTS
Action
p815
(dp816
g28
I2
sg29
I0
sg34
g796
sg35
g809
sg40
I0
sg41
g809
sg43
I0
sg47
F1.0
sba(iMCTS
Action
p817
(dp818
g28
I3
sg29
I0
sg34
g796
sg35
g809
sg40
I0
sg41
g809
sg43
I0
sg47
F1.0
sba(iMCTS
Action
p819
(dp820
g28
I4
sg29
I0
sg34
g796
sg35
g809
sg40
I0
sg41
g809
sg43
I0
sg47
F1.0
sba(iMCTS
Action
p821
(dp822
g28
I5
sg29
I0
sg34
g796
sg35
g809
sg40
I0
sg41
g809
sg43
I0
sg47
F1.0
sba(iMCTS
Action
p823
(dp824
g28
I6
sg29
I0
sg34
g796
sg35
g809
sg40
I0
sg41
g809
sg43
I0
sg47
F1.0
sba(iMCTS
Action
p825
(dp826
g28
I7
sg29
I0
sg34
g796
sg35
g809
sg40
I0
sg41
g809
sg43
I0
sg47
F1.0
sba(iMCTS
Action
p827
(dp828
g28
I8
sg29
I0
sg34
g796
sg35
g809
sg40
I0
sg41
g809
sg43
I0
sg47
F1.0
sbasg121
g8
(g9
(I0
tp829
g11
tp830
Rp831
(I1
(I9
tp832
g70
I00
S'9\xe4A74\x1bC?\xf3\x8fs>^\xd7\x175\xc2\xa1\xb22b\xa8\x814*%\x8c/\xb2?\x86/\xb02\xa10'
p833
tp834
bsg128
g809
sg40
I0
sg129
I00
sg130
(lp835
sg132
F-0.917993401916173
sg133
I9
sbsba(iMCTS
Action
p836
(dp837
g28
I7
sg29
I0
sg34
g760
sg35
g773
sg40
I0
sg41
g773
sg43
I0
sg47
F1.0
sba(iMCTS
Action
p838
(dp839
g28
I8
sg29
I0
sg34
g760
sg35
g773
sg40
I0
sg41
g773
sg43
I0
sg47
F1.0
sbasg121
g8
(g9
(I0
tp840
g11
tp841
Rp842
(I1
(I9
tp843
g70
I00
S'\x97\x16^8\x82\xab|?\xd8?T<\xa9\xf3\x914\xee-\x1d2\xf2\xbc\xf83R\x0f\xc2/v{3.\x83e-/'
p844
tp845
bsg128
g773
sg40
I1
sg129
I00
sg130
(lp846
g791
asg132
F-1.0227562885379613
sg133
I9
sbsba(iMCTS
Action
p847
(dp848
g28
I1
sg29
g30
(g18
S'u\xc3\x82\x11{\x94\xf7?'
p849
tp850
Rp851
sg34
g736
sg35
g30
(g18
S'\x80\xaf\xae!H\xfb\xfe\xbf'
p852
tp853
Rp854
sg39
g854
sg40
I56
sg41
F-1.9363480869023697
sg42
g851
sg43
g30
(g18
S'\x8d\xd9x\x1d\xdf\x1b[\xc0'
p855
tp856
Rp857
sg47
g30
(g18
S'\xf8\x98\xf0\xbbDp\x9b?'
p858
tp859
Rp860
sg51
g0
(g1
g2
Ntp861
Rp862
(dp863
g6
g847
sg7
g8
(g9
(I0
tp864
g11
tp865
Rp866
(I1
(I2
tp867
g18
I00
S'\x00\x00\x00\x00\xbc_\xfa\xbf\x00\x00\x00@\xbe\x1d\xd7\xbf'
p868
tp869
bsg23
Nsg24
(lp870
(iMCTS
Action
p871
(dp872
g28
I0
sg29
g30
(g18
S'\xa0)O\xdb\xf1g\xa9?'
p873
tp874
Rp875
sg34
g862
sg35
g30
(g18
S'\x84y:\xe2\xbeC\xed\xbf'
p876
tp877
Rp878
sg39
g878
sg40
I2
sg41
F-0.9145197313808215
sg42
g875
sg43
g30
(g18
S'\x84y:\xe2\xbeC\xfd\xbf'
p879
tp880
Rp881
sg47
g30
(g18
S'\xa0)O\xdb\xf1g\xa9?'
p882
tp883
Rp884
sg51
g0
(g1
g2
Ntp885
Rp886
(dp887
g6
g871
sg7
g8
(g9
(I0
tp888
g11
tp889
Rp890
(I1
(I2
tp891
g18
I00
S'\x00\x00\x00\x80#\x1e\xf4\xbf\x00\x00\x00\x00\xf0\xe9\x90?'
p892
tp893
bsg23
Nsg24
(lp894
(iMCTS
Action
p895
(dp896
g28
I0
sg29
I0
sg34
g886
sg35
g8
(g9
(I0
tp897
g11
tp898
Rp899
(I1
(I1
I1
tp900
g70
I00
S'v\xe5!\xbe'
p901
tp902
bsg40
I0
sg41
g899
sg43
I0
sg47
F1.0
sba(iMCTS
Action
p903
(dp904
g28
I1
sg29
I0
sg34
g886
sg35
g899
sg40
I0
sg41
g899
sg43
I0
sg47
F1.0
sba(iMCTS
Action
p905
(dp906
g28
I2
sg29
I0
sg34
g886
sg35
g899
sg40
I0
sg41
g899
sg43
I0
sg47
F1.0
sba(iMCTS
Action
p907
(dp908
g28
I3
sg29
I0
sg34
g886
sg35
g899
sg40
I0
sg41
g899
sg43
I0
sg47
F1.0
sba(iMCTS
Action
p909
(dp910
g28
I4
sg29
I0
sg34
g886
sg35
g30
(g18
S'\xbc\xa4rr\xc0G\xde\xbf'
p911
tp912
Rp913
sg39
g913
sg40
I1
sg41
F-0.4731293790487816
sg42
F0.0
sg43
g30
(g18
S'\xbc\xa4rr\xc0G\xde\xbf'
p914
tp915
Rp916
sg47
I0
sg51
g0
(g1
g2
Ntp917
Rp918
(dp919
g6
g909
sg7
g8
(g9
(I0
tp920
g11
tp921
Rp922
(I1
(I2
tp923
g18
I00
S'\x00\x00\x00\x00!G\xf0\xbf\x00\x00\x00\x00\x88{\xbf?'
p924
tp925
bsg23
Nsg24
(lp926
(iMCTS
Action
p927
(dp928
g28
I0
sg29
I0
sg34
g918
sg35
g8
(g9
(I0
tp929
g11
tp930
Rp931
(I1
(I1
I1
tp932
g70
I00
S'\xb4!\xb7\xbd'
p933
tp934
bsg40
I0
sg41
g931
sg43
I0
sg47
F1.0
sba(iMCTS
Action
p935
(dp936
g28
I1
sg29
I0
sg34
g918
sg35
g931
sg40
I0
sg41
g931
sg43
I0
sg47
F1.0
sba(iMCTS
Action
p937
(dp938
g28
I2
sg29
I0
sg34
g918
sg35
g931
sg40
I0
sg41
g931
sg43
I0
sg47
F1.0
sba(iMCTS
Action
p939
(dp940
g28
I3
sg29
I0
sg34
g918
sg35
g931
sg40
I0
sg41
g931
sg43
I0
sg47
F1.0
sba(iMCTS
Action
p941
(dp942
g28
I4
sg29
I0
sg34
g918
sg35
g931
sg40
I0
sg41
g931
sg43
I0
sg47
F1.0
sba(iMCTS
Action
p943
(dp944
g28
I5
sg29
I0
sg34
g918
sg35
g931
sg40
I0
sg41
g931
sg43
I0
sg47
F1.0
sba(iMCTS
Action
p945
(dp946
g28
I6
sg29
I0
sg34
g918
sg35
g931
sg40
I0
sg41
g931
sg43
I0
sg47
F1.0
sba(iMCTS
Action
p947
(dp948
g28
I7
sg29
I0
sg34
g918
sg35
g931
sg40
I0
sg41
g931
sg43
I0
sg47
F1.0
sba(iMCTS
Action
p949
(dp950
g28
I8
sg29
I0
sg34
g918
sg35
g931
sg40
I0
sg41
g931
sg43
I0
sg47
F1.0
sbasg121
g8
(g9
(I0
tp951
g11
tp952
Rp953
(I1
(I9
tp954
g70
I00
S'\x04<\xa8=\x8a"N>\xbdk7?\xbe\x8f\x018~\xd2\xe76\x02\xa6\x927n\x81\xb16\x8f\xdf<57\xda\xde5'
p955
tp956
bsg128
g931
sg40
I0
sg129
I00
sg130
(lp957
sg132
F-0.38370962668939135
sg133
I9
sbsba(iMCTS
Action
p958
(dp959
g28
I5
sg29
I0
sg34
g886
sg35
g899
sg40
I0
sg41
g899
sg43
I0
sg47
F1.0
sba(iMCTS
Action
p960
(dp961
g28
I6
sg29
I0
sg34
g886
sg35
g899
sg40
I0
sg41
g899
sg43
I0
sg47
F1.0
sba(iMCTS
Action
p962
(dp963
g28
I7
sg29
I0
sg34
g886
sg35
g899
sg40
I0
sg41
g899
sg43
I0
sg47
F1.0
sba(iMCTS
Action
p964
(dp965
g28
I8
sg29
I0
sg34
g886
sg35
g899
sg40
I0
sg41
g899
sg43
I0
sg47
F1.0
sbasg121
g8
(g9
(I0
tp966
g11
tp967
Rp968
(I1
(I9
tp969
g70
I00
S'\x10wF<EOw?\xca\xce\xb2<\x8c\n\x866o\xac\x9c48\xa4\xfa5@\x99\xd43pR\x9d1r\x0b\x062'
p970
tp971
bsg128
g899
sg40
I1
sg129
I00
sg130
(lp972
g913
asg132
F-0.5989040986010062
sg133
I9
sbsba(iMCTS
Action
p973
(dp974
g28
I1
sg29
g30
(g18
S'/i\x92\x8c\x1c\xff\xd7?'
p975
tp976
Rp977
sg34
g862
sg35
g30
(g18
S'\xd9p\xf7\xd6\x1a\x89\xec\xbf'
p978
tp979
Rp980
sg39
g980
sg40
I46
sg41
F-0.891736430985044
sg42
g977
sg43
g30
(g18
S'\x1b\xd9\x81J\x8b\x82D\xc0'
p981
tp982
Rp983
sg47
g30
(g18
S'\x1cE\xe5Ro\x10\x81?'
p984
tp985
Rp986
sg51
g0
(g1
g2
Ntp987
Rp988
(dp989
g6
g973
sg7
g8
(g9
(I0
tp990
g11
tp991
Rp992
(I1
(I2
tp993
g18
I00
S'\x00\x00\x00\x00m\xc8\xf2\xbf\x00\x00\x00\xc0\x06\xbb\xd6\xbf'
p994
tp995
bsg23
Nsg24
(lp996
(iMCTS
Action
p997
(dp998
g28
I0
sg29
g30
(g18
S'\xbb\xf0\x8c?\x9ch\xd5?'
p999
tp1000
Rp1001
sg34
g988
sg35
g30
(g18
S'X\xb7\xcd\xde\xf6\x18\xd5\xbf'
p1002
tp1003
Rp1004
sg39
g1004
sg40
I43
sg41
F-0.3296487022224616
sg42
g1001
sg43
g30
(g18
S']nd\xbb\x8bY,\xc0'
p1005
tp1006
Rp1007
sg47
g30
(g18
S'\xe4U\xa8\xff\xb3O\x80?'
p1008
tp1009
Rp1010
sg51
g0
(g1
g2
Ntp1011
Rp1012
(dp1013
g6
g997
sg7
g8
(g9
(I0
tp1014
g11
tp1015
Rp1016
(I1
(I2
tp1017
g18
I00
S'\x00\x00\x00\x00$\xc3\xe9\xbf\x00\x00\x00\x00\xf8#\xbc\xbf'
p1018
tp1019
bsg23
Nsg24
(lp1020
(iMCTS
Action
p1021
(dp1022
g28
I0
sg29
g30
(g18
S'\xc1\xc2\x87\xbc\x1f\xf4\xcc?'
p1023
tp1024
Rp1025
sg34
g1012
sg35
g30
(g18
S'D\xfd\\\xf4\x81\xf6\xc3\xbf'
p1026
tp1027
Rp1028
sg39
g1028
sg40
I30
sg41
F-0.15596031600760268
sg42
g1025
sg43
g30
(g18
S'n-\x17\xd5\x19\xb7\x12\xc0'
p1029
tp1030
Rp1031
sg47
g30
(g18
S'\x8e\xe8\xf69\xe5\xf2\x7f?'
p1032
tp1033
Rp1034
sg51
g0
(g1
g2
Ntp1035
Rp1036
(dp1037
g6
g1021
sg7
g8
(g9
(I0
tp1038
g11
tp1039
Rp1040
(I1
(I2
tp1041
g18
I00
S'\x00\x00\x00\x00\x92x\xe0\xbf\x00\x00\x00\x00\xe0\t\xa6?'
p1042
tp1043
bsg23
Nsg24
(lp1044
(iMCTS
Action
p1045
(dp1046
g28
I0
sg29
g30
(g18
S'\x04\xbb3\xd3\xa8\xed\xc3?'
p1047
tp1048
Rp1049
sg34
g1036
sg35
g30
(g18
S'JMBlS\xa0\xc6\xbf'
p1050
tp1051
Rp1052
sg39
g1052
sg40
I23
sg41
F-0.17676775728305424
sg42
g1049
sg43
g30
(g18
S'\x8e\xa7\xcf\xf5;C\x10\xc0'
p1053
tp1054
Rp1055
sg47
g30
(g18
S'\x1dm\x05y\x98\xfc|?'
p1056
tp1057
Rp1058
sg51
g0
(g1
g2
Ntp1059
Rp1060
(dp1061
g6
g1045
sg7
g8
(g9
(I0
tp1062
g11
tp1063
Rp1064
(I1
(I2
tp1065
g18
I00
S'\x00\x00\x00\x00\xdb\x99\xe0\xbf\x00\x00\x00\x00x\x8f\xbb?'
p1066
tp1067
bsg23
Nsg24
(lp1068
(iMCTS
Action
p1069
(dp1070
g28
I0
sg29
g30
(g18
S'E[^0\xbe\x1a\xb7?'
p1071
tp1072
Rp1073
sg34
g1060
sg35
g30
(g18
S"'\xf8m\x81+z\xc8\xbf"
p1074
tp1075
Rp1076
sg39
g1076
sg40
I14
sg41
F-0.1912283308010398
sg42
g1073
sg43
g30
(g18
S'!9@\x11\xe6j\x05\xc0'
p1077
tp1078
Rp1079
sg47
g30
(g18
S'\x90!t\x00\xafo|?'
p1080
tp1081
Rp1082
sg51
g0
(g1
g2
Ntp1083
Rp1084
(dp1085
g6
g1069
sg7
g8
(g9
(I0
tp1086
g11
tp1087
Rp1088
(I1
(I2
tp1089
g18
I00
S'\x00\x00\x00\x00XR\xe0\xbf\x00\x00\x00\x00\x0c\x1f\xcc?'
p1090
tp1091
bsg23
Nsg24
(lp1092
(iMCTS
Action
p1093
(dp1094
g28
I0
sg29
I0
sg34
g1084
sg35
g30
(g18
S't\x8dv\xb6\x14\xeb\xd1\xbf'
p1095
tp1096
Rp1097
sg39
g1097
sg40
I1
sg41
F-0.2799732000223323
sg42
F0.0
sg43
g30
(g18
S't\x8dv\xb6\x14\xeb\xd1\xbf'
p1098
tp1099
Rp1100
sg47
I0
sg51
g0
(g1
g2
Ntp1101
Rp1102
(dp1103
g6
g1093
sg7
g8
(g9
(I0
tp1104
g11
tp1105
Rp1106
(I1
(I2
tp1107
g18
I00
S'\x00\x00\x00\x00\x03\x18\xd6\xbf\x00\x00\x00\x00\xa6\x0e\xdb?'
p1108
tp1109
bsg23
Nsg24
(lp1110
(iMCTS
Action
p1111
(dp1112
g28
I0
sg29
I0
sg34
g1102
sg35
g8
(g9
(I0
tp1113
g11
tp1114
Rp1115
(I1
(I1
I1
tp1116
g70
I00
S'X\xcdl\xbe'
p1117
tp1118
bsg40
I0
sg41
g1115
sg43
I0
sg47
F1.0
sba(iMCTS
Action
p1119
(dp1120
g28
I1
sg29
I0
sg34
g1102
sg35
g1115
sg40
I0
sg41
g1115
sg43
I0
sg47
F1.0
sba(iMCTS
Action
p1121
(dp1122
g28
I2
sg29
I0
sg34
g1102
sg35
g1115
sg40
I0
sg41
g1115
sg43
I0
sg47
F1.0
sba(iMCTS
Action
p1123
(dp1124
g28
I3
sg29
I0
sg34
g1102
sg35
g1115
sg40
I0
sg41
g1115
sg43
I0
sg47
F1.0
sba(iMCTS
Action
p1125
(dp1126
g28
I4
sg29
I0
sg34
g1102
sg35
g1115
sg40
I0
sg41
g1115
sg43
I0
sg47
F1.0
sba(iMCTS
Action
p1127
(dp1128
g28
I5
sg29
I0
sg34
g1102
sg35
g1115
sg40
I0
sg41
g1115
sg43
I0
sg47
F1.0
sba(iMCTS
Action
p1129
(dp1130
g28
I6
sg29
I0
sg34
g1102
sg35
g1115
sg40
I0
sg41
g1115
sg43
I0
sg47
F1.0
sba(iMCTS
Action
p1131
(dp1132
g28
I7
sg29
I0
sg34
g1102
sg35
g1115
sg40
I0
sg41
g1115
sg43
I0
sg47
F1.0
sba(iMCTS
Action
p1133
(dp1134
g28
I8
sg29
I0
sg34
g1102
sg35
g1115
sg40
I0
sg41
g1115
sg43
I0
sg47
F1.0
sbasg121
g8
(g9
(I0
tp1135
g11
tp1136
Rp1137
(I1
(I9
tp1138
g70
I00
S'\x12\xae:<L\xb4\xe05A)r?\x9cX\xa87\xf8\x1b\xd68\xb5\xa2\x987H\x98\xf49\xf2\xfb\x05;|\xe2#='
p1139
tp1140
bsg128
g1115
sg40
I0
sg129
I00
sg130
(lp1141
sg132
F-0.0487211257806941
sg133
I9
sbsba(iMCTS
Action
p1142
(dp1143
g28
I1
sg29
I0
sg34
g1084
sg35
g8
(g9
(I0
tp1144
g11
tp1145
Rp1146
(I1
(I1
I1
tp1147
g70
I00
S'\xb8\x85\xbe\xbd'
p1148
tp1149
bsg40
I0
sg41
g1146
sg43
I0
sg47
F1.0
sba(iMCTS
Action
p1150
(dp1151
g28
I2
sg29
g30
(g18
S'\x1c\x07\xab\x08\xf2\x87\xb2?'
p1152
tp1153
Rp1154
sg34
g1084
sg35
g30
(g18
S'w\x9a\x9bY\x84\xf0\xc5\xbf'
p1155
tp1156
Rp1157
sg39
g1157
sg40
I12
sg41
F-0.1714024961031162
sg42
g1154
sg43
g30
(g18
S'\xda\xb34Cct\x00\xc0'
p1158
tp1159
Rp1160
sg47
g30
(g18
S'\xe38\xca\xc6H\xf4z?'
p1161
tp1162
Rp1163
sg51
g0
(g1
g2
Ntp1164
Rp1165
(dp1166
g6
g1150
sg7
g8
(g9
(I0
tp1167
g11
tp1168
Rp1169
(I1
(I2
tp1170
g18
I00
S'\x00\x00\x00\x00\xa2\xa3\xde\xbf\x00\x00\x00\x00:\xbd\xd2?'
p1171
tp1172
bsg23
Nsg24
(lp1173
(iMCTS
Action
p1174
(dp1175
g28
I0
sg29
I0
sg34
g1165
sg35
g8
(g9
(I0
tp1176
g11
tp1177
Rp1178
(I1
(I1
I1
tp1179
g70
I00
S'\xf0I\x02\xbe'
p1180
tp1181
bsg40
I0
sg41
g1178
sg43
I0
sg47
F1.0
sba(iMCTS
Action
p1182
(dp1183
g28
I1
sg29
I0
sg34
g1165
sg35
g1178
sg40
I0
sg41
g1178
sg43
I0
sg47
F1.0
sba(iMCTS
Action
p1184
(dp1185
g28
I2
sg29
g30
(g18
S'\xb9\xd9\xe8Qu\xa3\xb1?'
p1186
tp1187
Rp1188
sg34
g1165
sg35
g30
(g18
S'f}\xee\xfa\xe2\xfd\xc1\xbf'
p1189
tp1190
Rp1191
sg39
g1191
sg40
I10
sg41
F-0.1405605054141958
sg42
g1188
sg43
g30
(g18
S'\xc0\x1c\xaa\xb9[}\xf6\xbf'
p1192
tp1193
Rp1194
sg47
g30
(g18
S'\x82\x9fH<{[\x7f?'
p1195
tp1196
Rp1197
sg51
g0
(g1
g2
Ntp1198
Rp1199
(dp1200
g6
g1184
sg7
g8
(g9
(I0
tp1201
g11
tp1202
Rp1203
(I1
(I2
tp1204
g18
I00
S'\x00\x00\x00\x00\x18^\xe0\xbf\x00\x00\x00\x006J\xcb?'
p1205
tp1206
bsg23
Nsg24
(lp1207
(iMCTS
Action
p1208
(dp1209
g28
I0
sg29
I0
sg34
g1199
sg35
g30
(g18
S'\xf81\x19!\x98\xc8\xbd\xbf'
p1210
tp1211
Rp1212
sg39
g1212
sg40
I1
sg41
F-0.11634207542483199
sg42
F0.0
sg43
g30
(g18
S'\xf81\x19!\x98\xc8\xbd\xbf'
p1213
tp1214
Rp1215
sg47
I0
sg51
g0
(g1
g2
Ntp1216
Rp1217
(dp1218
g6
g1208
sg7
g8
(g9
(I0
tp1219
g11
tp1220
Rp1221
(I1
(I2
tp1222
g18
I00
S'\x00\x00\x00\x00\x0e=\xe0\xbf\x00\x00\x00\x00b]\xcd?'
p1223
tp1224
bsg23
Nsg24
(lp1225
(iMCTS
Action
p1226
(dp1227
g28
I0
sg29
I0
sg34
g1217
sg35
g8
(g9
(I0
tp1228
g11
tp1229
Rp1230
(I1
(I1
I1
tp1231
g70
I00
S'\xcc\x8c\xc6\xbd'
p1232
tp1233
bsg40
I0
sg41
g1230
sg43
I0
sg47
F1.0
sba(iMCTS
Action
p1234
(dp1235
g28
I1
sg29
I0
sg34
g1217
sg35
g1230
sg40
I0
sg41
g1230
sg43
I0
sg47
F1.0
sba(iMCTS
Action
p1236
(dp1237
g28
I2
sg29
I0
sg34
g1217
sg35
g1230
sg40
I0
sg41
g1230
sg43
I0
sg47
F1.0
sba(iMCTS
Action
p1238
(dp1239
g28
I3
sg29
I0
sg34
g1217
sg35
g1230
sg40
I0
sg41
g1230
sg43
I0
sg47
F1.0
sba(iMCTS
Action
p1240
(dp1241
g28
I4
sg29
I0
sg34
g1217
sg35
g1230
sg40
I0
sg41
g1230
sg43
I0
sg47
F1.0
sba(iMCTS
Action
p1242
(dp1243
g28
I5
sg29
I0
sg34
g1217
sg35
g1230
sg40
I0
sg41
g1230
sg43
I0
sg47
F1.0
sba(iMCTS
Action
p1244
(dp1245
g28
I6
sg29
I0
sg34
g1217
sg35
g1230
sg40
I0
sg41
g1230
sg43
I0
sg47
F1.0
sba(iMCTS
Action
p1246
(dp1247
g28
I7
sg29
I0
sg34
g1217
sg35
g1230
sg40
I0
sg41
g1230
sg43
I0
sg47
F1.0
sba(iMCTS
Action
p1248
(dp1249
g28
I8
sg29
I0
sg34
g1217
sg35
g1230
sg40
I0
sg41
g1230
sg43
I0
sg47
F1.0
sbasg121
g8
(g9
(I0
tp1250
g11
tp1251
Rp1252
(I1
(I9
tp1253
g70
I00
S'\xf0\xca\xd1=\xea\n\xcf7\xff\xc6d?\x9es\xf87\xe9\xef\xac8\x9d)\xe07\x15\x90u:N\xb5\x989\xefp$;'
p1254
tp1255
bsg128
g1230
sg40
I0
sg129
I00
sg130
(lp1256
sg132
F-0.01939383919779647
sg133
I9
sbsba(iMCTS
Action
p1257
(dp1258
g28
I1
sg29
I0
sg34
g1199
sg35
g8
(g9
(I0
tp1259
g11
tp1260
Rp1261
(I1
(I1
I1
tp1262
g70
I00
S'\xecW\xb9\xbd'
p1263
tp1264
bsg40
I0
sg41
g1261
sg43
I0
sg47
F1.0
sba(iMCTS
Action
p1265
(dp1266
g28
I2
sg29
g30
(g18
S'4>\x1a!\xf0\xd7\xb0?'
p1267
tp1268
Rp1269
sg34
g1199
sg35
g30
(g18
S'\xd1\x10W\xca\x95J\xbf\xbf'
p1270
tp1271
Rp1272
sg39
g1272
sg40
I7
sg41
F-0.12223182859367233
sg42
g1269
sg43
g30
(g18
S'\xb7.\x0c\x11Ca\xeb\xbf'
p1273
tp1274
Rp1275
sg47
g30
(g18
S'\x9b\xfd",@u\x86?'
p1276
tp1277
Rp1278
sg51
g0
(g1
g2
Ntp1279
Rp1280
(dp1281
g6
g1265
sg7
g8
(g9
(I0
tp1282
g11
tp1283
Rp1284
(I1
(I2
tp1285
g18
I00
S'\x00\x00\x00\x00\x06\xad\xe0\xbf\x00\x00\x00\x00\xdc:\xb8?'
p1286
tp1287
bsg23
Nsg24
(lp1288
(iMCTS
Action
p1289
(dp1290
g28
I0
sg29
g30
(g18
S'\x0c\xf1#\x8d}V\xa5?'
p1291
tp1292
Rp1293
sg34
g1280
sg35
g30
(g18
S'9\x80\xa4\xa9\xd1\xcf\xc1\xbf'
p1294
tp1295
Rp1296
sg39
g1296
sg40
I4
sg41
F-0.139154632409374
sg42
g1293
sg43
g30
(g18
S'9\x80\xa4\xa9\xd1\xcf\xe1\xbf'
p1297
tp1298
Rp1299
sg47
g30
(g18
S'eA\x85\x11Rs\x8c?'
p1300
tp1301
Rp1302
sg51
g0
(g1
g2
Ntp1303
Rp1304
(dp1305
g6
g1289
sg7
g8
(g9
(I0
tp1306
g11
tp1307
Rp1308
(I1
(I2
tp1309
g18
I00
S'\x00\x00\x00\x00\x14\x81\xe0\xbf\x00\x00\x00\x00@\xb3k\xbf'
p1310
tp1311
bsg23
Nsg24
(lp1312
(iMCTS
Action
p1313
(dp1314
g28
I0
sg29
g30
(g18
S't]\xeb\x8c\x84\xe2\x95?'
p1315
tp1316
Rp1317
sg34
g1304
sg35
g30
(g18
S'\x0c\x19q;$\xd0\xc2\xbf'
p1318
tp1319
Rp1320
sg39
g1320
sg40
I2
sg41
F-0.14697697546416355
sg42
g1317
sg43
g30
(g18
S'\x0c\x19q;$\xd0\xd2\xbf'
p1321
tp1322
Rp1323
sg47
g30
(g18
S't]\xeb\x8c\x84\xe2\x95?'
p1324
tp1325
Rp1326
sg51
g0
(g1
g2
Ntp1327
Rp1328
(dp1329
g6
g1313
sg7
g8
(g9
(I0
tp1330
g11
tp1331
Rp1332
(I1
(I2
tp1333
g18
I00
S'\x00\x00\x00\x00\xd3\x89\xe0\xbf\x00\x00\x00\x00\x10\xd0\xab?'
p1334
tp1335
bsg23
Nsg24
(lp1336
(iMCTS
Action
p1337
(dp1338
g28
I0
sg29
I0
sg34
g1328
sg35
g8
(g9
(I0
tp1339
g11
tp1340
Rp1341
(I1
(I1
I1
tp1342
g70
I00
S'\xa8\x96.\xbd'
p1343
tp1344
bsg40
I0
sg41
g1341
sg43
I0
sg47
F1.0
sba(iMCTS
Action
p1345
(dp1346
g28
I1
sg29
I0
sg34
g1328
sg35
g1341
sg40
I0
sg41
g1341
sg43
I0
sg47
F1.0
sba(iMCTS
Action
p1347
(dp1348
g28
I2
sg29
I0
sg34
g1328
sg35
g1341
sg40
I0
sg41
g1341
sg43
I0
sg47
F1.0
sba(iMCTS
Action
p1349
(dp1350
g28
I3
sg29
I0
sg34
g1328
sg35
g1341
sg40
I0
sg41
g1341
sg43
I0
sg47
F1.0
sba(iMCTS
Action
p1351
(dp1352
g28
I4
sg29
I0
sg34
g1328
sg35
g1341
sg40
I0
sg41
g1341
sg43
I0
sg47
F1.0
sba(iMCTS
Action
p1353
(dp1354
g28
I5
sg29
I0
sg34
g1328
sg35
g1341
sg40
I0
sg41
g1341
sg43
I0
sg47
F1.0
sba(iMCTS
Action
p1355
(dp1356
g28
I6
sg29
I0
sg34
g1328
sg35
g1341
sg40
I0
sg41
g1341
sg43
I0
sg47
F1.0
sba(iMCTS
Action
p1357
(dp1358
g28
I7
sg29
I0
sg34
g1328
sg35
g1341
sg40
I0
sg41
g1341
sg43
I0
sg47
F1.0
sba(iMCTS
Action
p1359
(dp1360
g28
I8
sg29
I0
sg34
g1328
sg35
g30
(g18
S'\xe0\x9b\xa9\x92Z\xeb\xcf\xbf'
p1361
tp1362
Rp1363
sg39
g1363
sg40
I1
sg41
F-0.24936992799049928
sg42
F0.0
sg43
g30
(g18
S'\xe0\x9b\xa9\x92Z\xeb\xcf\xbf'
p1364
tp1365
Rp1366
sg47
I0
sg51
g0
(g1
g2
Ntp1367
Rp1368
(dp1369
g6
g1359
sg7
g8
(g9
(I0
tp1370
g11
tp1371
Rp1372
(I1
(I2
tp1373
g18
I00
S'\x00\x00\x00\x00\xeb\x80\xe9\xbf\x00\x00\x00\x00\x88\xc1\xb6?'
p1374
tp1375
bsg23
Nsg24
(lp1376
(iMCTS
Action
p1377
(dp1378
g28
I0
sg29
I0
sg34
g1368
sg35
g8
(g9
(I0
tp1379
g11
tp1380
Rp1381
(I1
(I1
I1
tp1382
g70
I00
S'\x10\x14Z\xbd'
p1383
tp1384
bsg40
I0
sg41
g1381
sg43
I0
sg47
F1.0
sba(iMCTS
Action
p1385
(dp1386
g28
I1
sg29
I0
sg34
g1368
sg35
g1381
sg40
I0
sg41
g1381
sg43
I0
sg47
F1.0
sba(iMCTS
Action
p1387
(dp1388
g28
I2
sg29
I0
sg34
g1368
sg35
g1381
sg40
I0
sg41
g1381
sg43
I0
sg47
F1.0
sba(iMCTS
Action
p1389
(dp1390
g28
I3
sg29
I0
sg34
g1368
sg35
g1381
sg40
I0
sg41
g1381
sg43
I0
sg47
F1.0
sba(iMCTS
Action
p1391
(dp1392
g28
I4
sg29
I0
sg34
g1368
sg35
g1381
sg40
I0
sg41
g1381
sg43
I0
sg47
F1.0
sba(iMCTS
Action
p1393
(dp1394
g28
I5
sg29
I0
sg34
g1368
sg35
g1381
sg40
I0
sg41
g1381
sg43
I0
sg47
F1.0
sba(iMCTS
Action
p1395
(dp1396
g28
I6
sg29
I0
sg34
g1368
sg35
g1381
sg40
I0
sg41
g1381
sg43
I0
sg47
F1.0
sba(iMCTS
Action
p1397
(dp1398
g28
I7
sg29
I0
sg34
g1368
sg35
g1381
sg40
I0
sg41
g1381
sg43
I0
sg47
F1.0
sba(iMCTS
Action
p1399
(dp1400
g28
I8
sg29
I0
sg34
g1368
sg35
g1381
sg40
I0
sg41
g1381
sg43
I0
sg47
F1.0
sbasg121
g8
(g9
(I0
tp1401
g11
tp1402
Rp1403
(I1
(I9
tp1404
g70
I00
S'\x8b\x81\x02?25\xaf;\x02\x16\xf8>9\xb1<8\n\x1b\x068\x15/\x068\xe8V(9|xG7GN&8'
p1405
tp1406
bsg128
g1381
sg40
I0
sg129
I00
sg130
(lp1407
sg132
F-0.19612813864952638
sg133
I9
sbsbasg121
g8
(g9
(I0
tp1408
g11
tp1409
Rp1410
(I1
(I9
tp1411
g70
I00
S'x6n?M\x95\x9a7\xdc\xb8\x82=G:\xc97\x06z\x9a8vJ\xb97=\x10\x93;\x13\x15\xda8J\xb4q:'
p1412
tp1413
bsg128
g1341
sg40
I1
sg129
I00
sg130
(lp1414
g1363
asg132
F-0.0009799385957983686
sg133
I9
sbsba(iMCTS
Action
p1415
(dp1416
g28
I1
sg29
I0
sg34
g1304
sg35
g8
(g9
(I0
tp1417
g11
tp1418
Rp1419
(I1
(I1
I1
tp1420
g70
I00
S'\x00!\xf6\xbc'
p1421
tp1422
bsg40
I0
sg41
g1419
sg43
I0
sg47
F1.0
sba(iMCTS
Action
p1423
(dp1424
g28
I2
sg29
I0
sg34
g1304
sg35
g1419
sg40
I0
sg41
g1419
sg43
I0
sg47
F1.0
sba(iMCTS
Action
p1425
(dp1426
g28
I3
sg29
I0
sg34
g1304
sg35
g1419
sg40
I0
sg41
g1419
sg43
I0
sg47
F1.0
sba(iMCTS
Action
p1427
(dp1428
g28
I4
sg29
I0
sg34
g1304
sg35
g1419
sg40
I0
sg41
g1419
sg43
I0
sg47
F1.0
sba(iMCTS
Action
p1429
(dp1430
g28
I5
sg29
I0
sg34
g1304
sg35
g1419
sg40
I0
sg41
g1419
sg43
I0
sg47
F1.0
sba(iMCTS
Action
p1431
(dp1432
g28
I6
sg29
I0
sg34
g1304
sg35
g1419
sg40
I0
sg41
g1419
sg43
I0
sg47
F1.0
sba(iMCTS
Action
p1433
(dp1434
g28
I7
sg29
I0
sg34
g1304
sg35
g1419
sg40
I0
sg41
g1419
sg43
I0
sg47
F1.0
sba(iMCTS
Action
p1435
(dp1436
g28
I8
sg29
I0
sg34
g1304
sg35
g30
(g18
S'<\xb7\x98v#u\xcd\xbf'
p1437
tp1438
Rp1439
sg39
g1439
sg40
I1
sg41
F-0.23013728419157953
sg42
F0.0
sg43
g30
(g18
S'<\xb7\x98v#u\xcd\xbf'
p1440
tp1441
Rp1442
sg47
I0
sg51
g0
(g1
g2
Ntp1443
Rp1444
(dp1445
g6
g1435
sg7
g8
(g9
(I0
tp1446
g11
tp1447
Rp1448
(I1
(I2
tp1449
g18
I00
S'\x00\x00\x00\x00\xe6\x15\xe9\xbf\x00\x00\x00\x00\x90?\xad?'
p1450
tp1451
bsg23
Nsg24
(lp1452
(iMCTS
Action
p1453
(dp1454
g28
I0
sg29
I0
sg34
g1444
sg35
g8
(g9
(I0
tp1455
g11
tp1456
Rp1457
(I1
(I1
I1
tp1458
g70
I00
S'H\xb64\xbd'
p1459
tp1460
bsg40
I0
sg41
g1457
sg43
I0
sg47
F1.0
sba(iMCTS
Action
p1461
(dp1462
g28
I1
sg29
I0
sg34
g1444
sg35
g1457
sg40
I0
sg41
g1457
sg43
I0
sg47
F1.0
sba(iMCTS
Action
p1463
(dp1464
g28
I2
sg29
I0
sg34
g1444
sg35
g1457
sg40
I0
sg41
g1457
sg43
I0
sg47
F1.0
sba(iMCTS
Action
p1465
(dp1466
g28
I3
sg29
I0
sg34
g1444
sg35
g1457
sg40
I0
sg41
g1457
sg43
I0
sg47
F1.0
sba(iMCTS
Action
p1467
(dp1468
g28
I4
sg29
I0
sg34
g1444
sg35
g1457
sg40
I0
sg41
g1457
sg43
I0
sg47
F1.0
sba(iMCTS
Action
p1469
(dp1470
g28
I5
sg29
I0
sg34
g1444
sg35
g1457
sg40
I0
sg41
g1457
sg43
I0
sg47
F1.0
sba(iMCTS
Action
p1471
(dp1472
g28
I6
sg29
I0
sg34
g1444
sg35
g1457
sg40
I0
sg41
g1457
sg43
I0
sg47
F1.0
sba(iMCTS
Action
p1473
(dp1474
g28
I7
sg29
I0
sg34
g1444
sg35
g1457
sg40
I0
sg41
g1457
sg43
I0
sg47
F1.0
sba(iMCTS
Action
p1475
(dp1476
g28
I8
sg29
I0
sg34
g1444
sg35
g1457
sg40
I0
sg41
g1457
sg43
I0
sg47
F1.0
sbasg121
g8
(g9
(I0
tp1477
g11
tp1478
Rp1479
(I1
(I9
tp1480
g70
I00
S'\xc4\xc7??\x859j;\x88\xd6|>AA$8\x8e\x1c\xff7\x87\xe7\xec7\x9cfn9J\x8217L\t\x188'
p1481
tp1482
bsg128
g1457
sg40
I0
sg129
I00
sg130
(lp1483
sg132
F-0.1860181347450921
sg133
I9
sbsbasg121
g8
(g9
(I0
tp1484
g11
tp1485
Rp1486
(I1
(I9
tp1487
g70
I00
S'P\xe6{?\x1f\x9c\x037#\x1d?<\x8c\xce97E\xff\x158,\x9d+7r\xa0\x7f;e\xad\x1d8F\x17\xb79'
p1488
tp1489
bsg128
g1419
sg40
I3
sg129
I00
sg130
(lp1490
g1439
ag30
(g18
S'p,qHFS\xa6\xbf'
p1491
tp1492
Rp1493
ag30
(g18
S'~\xf3br\xbb\x05\xd0\xbf'
p1494
tp1495
Rp1496
asg132
F-0.0006205655040921743
sg133
I9
sbsba(iMCTS
Action
p1497
(dp1498
g28
I1
sg29
I0
sg34
g1280
sg35
g8
(g9
(I0
tp1499
g11
tp1500
Rp1501
(I1
(I1
I1
tp1502
g70
I00
S'\xb0bW\xbd'
p1503
tp1504
bsg40
I0
sg41
g1501
sg43
I0
sg47
F1.0
sba(iMCTS
Action
p1505
(dp1506
g28
I2
sg29
I0
sg34
g1280
sg35
g30
(g18
S'\xa0\xfdC>\x18\x85\x90\xbf'
p1507
tp1508
Rp1509
sg39
g1509
sg40
I1
sg41
F-0.016132715988531054
sg42
F0.0
sg43
g30
(g18
S'\xa0\xfdC>\x18\x85\x90\xbf'
p1510
tp1511
Rp1512
sg47
I0
sg51
g0
(g1
g2
Ntp1513
Rp1514
(dp1515
g6
g1505
sg7
g8
(g9
(I0
tp1516
g11
tp1517
Rp1518
(I1
(I2
tp1519
g18
I00
S'\x00\x00\x00\x00$\xa3\xe0\xbf\x00\x00\x00\x00\xa9G\xbe\xbf'
p1520
tp1521
bsg23
Nsg24
(lp1522
(iMCTS
Action
p1523
(dp1524
g28
I0
sg29
I0
sg34
g1514
sg35
g8
(g9
(I0
tp1525
g11
tp1526
Rp1527
(I1
(I1
I1
tp1528
g70
I00
S'\xc0\x058\xbc'
p1529
tp1530
bsg40
I0
sg41
g1527
sg43
I0
sg47
F1.0
sba(iMCTS
Action
p1531
(dp1532
g28
I1
sg29
I0
sg34
g1514
sg35
g1527
sg40
I0
sg41
g1527
sg43
I0
sg47
F1.0
sba(iMCTS
Action
p1533
(dp1534
g28
I2
sg29
I0
sg34
g1514
sg35
g1527
sg40
I0
sg41
g1527
sg43
I0
sg47
F1.0
sba(iMCTS
Action
p1535
(dp1536
g28
I3
sg29
I0
sg34
g1514
sg35
g1527
sg40
I0
sg41
g1527
sg43
I0
sg47
F1.0
sba(iMCTS
Action
p1537
(dp1538
g28
I4
sg29
I0
sg34
g1514
sg35
g1527
sg40
I0
sg41
g1527
sg43
I0
sg47
F1.0
sba(iMCTS
Action
p1539
(dp1540
g28
I5
sg29
I0
sg34
g1514
sg35
g1527
sg40
I0
sg41
g1527
sg43
I0
sg47
F1.0
sba(iMCTS
Action
p1541
(dp1542
g28
I6
sg29
I0
sg34
g1514
sg35
g1527
sg40
I0
sg41
g1527
sg43
I0
sg47
F1.0
sba(iMCTS
Action
p1543
(dp1544
g28
I7
sg29
I0
sg34
g1514
sg35
g1527
sg40
I0
sg41
g1527
sg43
I0
sg47
F1.0
sba(iMCTS
Action
p1545
(dp1546
g28
I8
sg29
I0
sg34
g1514
sg35
g1527
sg40
I0
sg41
g1527
sg43
I0
sg47
F1.0
sbasg121
g8
(g9
(I0
tp1547
g11
tp1548
Rp1549
(I1
(I9
tp1550
g70
I00
S'\xc4>\x7f?\x1df\xc45D\x84\xbd9P@\x166\xde\xa4\x027\xa9\\\n6li%;\xaf$\x966\xe3^<8'
p1551
tp1552
bsg128
g1527
sg40
I0
sg129
I00
sg130
(lp1553
sg132
F-0.0049008763317012205
sg133
I9
sbsba(iMCTS
Action
p1554
(dp1555
g28
I3
sg29
I0
sg34
g1280
sg35
g1501
sg40
I0
sg41
g1501
sg43
I0
sg47
F1.0
sba(iMCTS
Action
p1556
(dp1557
g28
I4
sg29
I0
sg34
g1280
sg35
g1501
sg40
I0
sg41
g1501
sg43
I0
sg47
F1.0
sba(iMCTS
Action
p1558
(dp1559
g28
I5
sg29
I0
sg34
g1280
sg35
g1501
sg40
I0
sg41
g1501
sg43
I0
sg47
F1.0
sba(iMCTS
Action
p1560
(dp1561
g28
I6
sg29
I0
sg34
g1280
sg35
g1501
sg40
I0
sg41
g1501
sg43
I0
sg47
F1.0
sba(iMCTS
Action
p1562
(dp1563
g28
I7
sg29
I0
sg34
g1280
sg35
g1501
sg40
I0
sg41
g1501
sg43
I0
sg47
F1.0
sba(iMCTS
Action
p1564
(dp1565
g28
I8
sg29
I0
sg34
g1280
sg35
g30
(g18
S'x\nRV\xa8Q\xca\xbf'
p1566
tp1567
Rp1568
sg39
g1568
sg40
I1
sg41
F-0.20561699118487176
sg42
F0.0
sg43
g30
(g18
S'x\nRV\xa8Q\xca\xbf'
p1569
tp1570
Rp1571
sg47
I0
sg51
g0
(g1
g2
Ntp1572
Rp1573
(dp1574
g6
g1564
sg7
g8
(g9
(I0
tp1575
g11
tp1576
Rp1577
(I1
(I2
tp1578
g18
I00
S'\x00\x00\x00\x00rx\xe7\xbf\x00\x00\x00\x00,\x14\xbe?'
p1579
tp1580
bsg23
Nsg24
(lp1581
(iMCTS
Action
p1582
(dp1583
g28
I0
sg29
I0
sg34
g1573
sg35
g8
(g9
(I0
tp1584
g11
tp1585
Rp1586
(I1
(I1
I1
tp1587
g70
I00
S'8\x0fl\xbd'
p1588
tp1589
bsg40
I0
sg41
g1586
sg43
I0
sg47
F1.0
sba(iMCTS
Action
p1590
(dp1591
g28
I1
sg29
I0
sg34
g1573
sg35
g1586
sg40
I0
sg41
g1586
sg43
I0
sg47
F1.0
sba(iMCTS
Action
p1592
(dp1593
g28
I2
sg29
I0
sg34
g1573
sg35
g1586
sg40
I0
sg41
g1586
sg43
I0
sg47
F1.0
sba(iMCTS
Action
p1594
(dp1595
g28
I3
sg29
I0
sg34
g1573
sg35
g1586
sg40
I0
sg41
g1586
sg43
I0
sg47
F1.0
sba(iMCTS
Action
p1596
(dp1597
g28
I4
sg29
I0
sg34
g1573
sg35
g1586
sg40
I0
sg41
g1586
sg43
I0
sg47
F1.0
sba(iMCTS
Action
p1598
(dp1599
g28
I5
sg29
I0
sg34
g1573
sg35
g1586
sg40
I0
sg41
g1586
sg43
I0
sg47
F1.0
sba(iMCTS
Action
p1600
(dp1601
g28
I6
sg29
I0
sg34
g1573
sg35
g1586
sg40
I0
sg41
g1586
sg43
I0
sg47
F1.0
sba(iMCTS
Action
p1602
(dp1603
g28
I7
sg29
I0
sg34
g1573
sg35
g1586
sg40
I0
sg41
g1586
sg43
I0
sg47
F1.0
sba(iMCTS
Action
p1604
(dp1605
g28
I8
sg29
I0
sg34
g1573
sg35
g1586
sg40
I0
sg41
g1586
sg43
I0
sg47
F1.0
sbasg121
g8
(g9
(I0
tp1606
g11
tp1607
Rp1608
(I1
(I9
tp1609
g70
I00
S'\xf0o\xc4>F\xdf\xd5:R=\x1d?\x1e_/8BH)8ud\x048H\xce\x819\xa0S\xd17\xe7\xe7\xce8'
p1610
tp1611
bsg128
g1586
sg40
I0
sg129
I00
sg130
(lp1612
sg132
F-0.14798528995386895
sg133
I9
sbsbasg121
g8
(g9
(I0
tp1613
g11
tp1614
Rp1615
(I1
(I9
tp1616
g70
I00
S'\xc5\x8cN?\xc2\xa3\x078jm?>\xa1\xed\x1b8`\xd2\xe28E\x98\x0e8\x17\xd3\x8b;\xbc\xc1@9\x90\x9e\xcc:'
p1617
tp1618
bsg128
g1501
sg40
I6
sg129
I00
sg130
(lp1619
g1568
ag30
(g18
S' /.r\xcdf\x9f\xbf'
p1620
tp1621
Rp1622
ag30
(g18
S' }\xde$y\x89\xcd\xbf'
p1623
tp1624
Rp1625
ag30
(g18
S'\x00D\x88\x01\x9d\xa4\xa6\xbf'
p1626
tp1627
Rp1628
ag1509
ag30
(g18
S'p\xd6\x85I\xe6\x0f\xd0\xbf'
p1629
tp1630
Rp1631
asg132
F-0.003524316176529596
sg133
I9
sbsba(iMCTS
Action
p1632
(dp1633
g28
I3
sg29
I0
sg34
g1199
sg35
g30
(g18
S'\x10.\xb4\x1f+x\xc5\xbf'
p1634
tp1635
Rp1636
sg39
g1636
sg40
I1
sg41
F-0.16772975013769598
sg42
F0.0
sg43
g30
(g18
S'\x10.\xb4\x1f+x\xc5\xbf'
p1637
tp1638
Rp1639
sg47
I0
sg51
g0
(g1
g2
Ntp1640
Rp1641
(dp1642
g6
g1632
sg7
g8
(g9
(I0
tp1643
g11
tp1644
Rp1645
(I1
(I2
tp1646
g18
I00
S'\x00\x00\x00\x00\xf8x\xe3\xbf\x00\x00\x00\x004\xba\xcc?'
p1647
tp1648
bsg23
Nsg24
(lp1649
(iMCTS
Action
p1650
(dp1651
g28
I0
sg29
I0
sg34
g1641
sg35
g8
(g9
(I0
tp1652
g11
tp1653
Rp1654
(I1
(I1
I1
tp1655
g70
I00
S'X\xae\xb9\xbd'
p1656
tp1657
bsg40
I0
sg41
g1654
sg43
I0
sg47
F1.0
sba(iMCTS
Action
p1658
(dp1659
g28
I1
sg29
I0
sg34
g1641
sg35
g1654
sg40
I0
sg41
g1654
sg43
I0
sg47
F1.0
sba(iMCTS
Action
p1660
(dp1661
g28
I2
sg29
I0
sg34
g1641
sg35
g1654
sg40
I0
sg41
g1654
sg43
I0
sg47
F1.0
sba(iMCTS
Action
p1662
(dp1663
g28
I3
sg29
I0
sg34
g1641
sg35
g1654
sg40
I0
sg41
g1654
sg43
I0
sg47
F1.0
sba(iMCTS
Action
p1664
(dp1665
g28
I4
sg29
I0
sg34
g1641
sg35
g1654
sg40
I0
sg41
g1654
sg43
I0
sg47
F1.0
sba(iMCTS
Action
p1666
(dp1667
g28
I5
sg29
I0
sg34
g1641
sg35
g1654
sg40
I0
sg41
g1654
sg43
I0
sg47
F1.0
sba(iMCTS
Action
p1668
(dp1669
g28
I6
sg29
I0
sg34
g1641
sg35
g1654
sg40
I0
sg41
g1654
sg43
I0
sg47
F1.0
sba(iMCTS
Action
p1670
(dp1671
g28
I7
sg29
I0
sg34
g1641
sg35
g1654
sg40
I0
sg41
g1654
sg43
I0
sg47
F1.0
sba(iMCTS
Action
p1672
(dp1673
g28
I8
sg29
I0
sg34
g1641
sg35
g1654
sg40
I0
sg41
g1654
sg43
I0
sg47
F1.0
sbasg121
g8
(g9
(I0
tp1674
g11
tp1675
Rp1676
(I1
(I9
tp1677
g70
I00
S'|xs=\x85\x14\xd28l\x90p?U\xd7\xad7\x18\xf5\x118+\xa9\x907\x9d\xbaJ9G:\x958\x15\x14\xdb9'
p1678
tp1679
bsg128
g1654
sg40
I0
sg129
I00
sg130
(lp1680
sg132
F-0.07706518457449407
sg133
I9
sbsba(iMCTS
Action
p1681
(dp1682
g28
I4
sg29
I0
sg34
g1199
sg35
g1261
sg40
I0
sg41
g1261
sg43
I0
sg47
F1.0
sba(iMCTS
Action
p1683
(dp1684
g28
I5
sg29
I0
sg34
g1199
sg35
g1261
sg40
I0
sg41
g1261
sg43
I0
sg47
F1.0
sba(iMCTS
Action
p1685
(dp1686
g28
I6
sg29
I0
sg34
g1199
sg35
g1261
sg40
I0
sg41
g1261
sg43
I0
sg47
F1.0
sba(iMCTS
Action
p1687
(dp1688
g28
I7
sg29
I0
sg34
g1199
sg35
g1261
sg40
I0
sg41
g1261
sg43
I0
sg47
F1.0
sba(iMCTS
Action
p1689
(dp1690
g28
I8
sg29
I0
sg34
g1199
sg35
g1261
sg40
I0
sg41
g1261
sg43
I0
sg47
F1.0
sbasg121
g8
(g9
(I0
tp1691
g11
tp1692
Rp1693
(I1
(I9
tp1694
g70
I00
S'\xbb\xb5\x13>\x18,\xf77\x17\xfcY?\x8f\xfe\r8/|\xc48s@\x008sy\x9f:Q9\x9d9D\xcd&;'
p1695
tp1696
bsg128
g1261
sg40
I9
sg129
I00
sg130
(lp1697
g1636
ag1212
ag30
(g18
S'P\x1bpmF\xba\xac\xbf'
p1698
tp1699
Rp1700
ag30
(g18
S'L\x11\xaeq$\xc5\xca\xbf'
p1701
tp1702
Rp1703
ag30
(g18
S'\xe02\x87&W\x81\xa1\xbf'
p1704
tp1705
Rp1706
ag30
(g18
S'\xf4\x83:@\xf5\xfc\xcd\xbf'
p1707
tp1708
Rp1709
ag30
(g18
S'P_\xf8n\x8dr\xa8\xbf'
p1710
tp1711
Rp1712
ag30
(g18
S'@4$\x19\xf9 \x94\xbf'
p1713
tp1714
Rp1715
ag30
(g18
S'\xda\xd93W\xa4I\xd0\xbf'
p1716
tp1717
Rp1718
asg132
F-0.017541069950564814
sg133
I9
sbsba(iMCTS
Action
p1719
(dp1720
g28
I3
sg29
I0
sg34
g1165
sg35
g1178
sg40
I0
sg41
g1178
sg43
I0
sg47
F1.0
sba(iMCTS
Action
p1721
(dp1722
g28
I4
sg29
I0
sg34
g1165
sg35
g30
(g18
S'<\x89\xd7\x9c\xb5\x8b\xc9\xbf'
p1723
tp1724
Rp1725
sg39
g1725
sg40
I1
sg41
F-0.19957609327600234
sg42
F0.0
sg43
g30
(g18
S'<\x89\xd7\x9c\xb5\x8b\xc9\xbf'
p1726
tp1727
Rp1728
sg47
I0
sg51
g0
(g1
g2
Ntp1729
Rp1730
(dp1731
g6
g1721
sg7
g8
(g9
(I0
tp1732
g11
tp1733
Rp1734
(I1
(I2
tp1735
g18
I00
S'\x00\x00\x00\x00\x83\xb5\xe2\xbf\x00\x00\x00\x00`k\xd2?'
p1736
tp1737
bsg23
Nsg24
(lp1738
(iMCTS
Action
p1739
(dp1740
g28
I0
sg29
I0
sg34
g1730
sg35
g8
(g9
(I0
tp1741
g11
tp1742
Rp1743
(I1
(I1
I1
tp1744
g70
I00
S'\xe8\xc1\xf0\xbd'
p1745
tp1746
bsg40
I0
sg41
g1743
sg43
I0
sg47
F1.0
sba(iMCTS
Action
p1747
(dp1748
g28
I1
sg29
I0
sg34
g1730
sg35
g1743
sg40
I0
sg41
g1743
sg43
I0
sg47
F1.0
sba(iMCTS
Action
p1749
(dp1750
g28
I2
sg29
I0
sg34
g1730
sg35
g1743
sg40
I0
sg41
g1743
sg43
I0
sg47
F1.0
sba(iMCTS
Action
p1751
(dp1752
g28
I3
sg29
I0
sg34
g1730
sg35
g1743
sg40
I0
sg41
g1743
sg43
I0
sg47
F1.0
sba(iMCTS
Action
p1753
(dp1754
g28
I4
sg29
I0
sg34
g1730
sg35
g1743
sg40
I0
sg41
g1743
sg43
I0
sg47
F1.0
sba(iMCTS
Action
p1755
(dp1756
g28
I5
sg29
I0
sg34
g1730
sg35
g1743
sg40
I0
sg41
g1743
sg43
I0
sg47
F1.0
sba(iMCTS
Action
p1757
(dp1758
g28
I6
sg29
I0
sg34
g1730
sg35
g1743
sg40
I0
sg41
g1743
sg43
I0
sg47
F1.0
sba(iMCTS
Action
p1759
(dp1760
g28
I7
sg29
I0
sg34
g1730
sg35
g1743
sg40
I0
sg41
g1743
sg43
I0
sg47
F1.0
sba(iMCTS
Action
p1761
(dp1762
g28
I8
sg29
I0
sg34
g1730
sg35
g1743
sg40
I0
sg41
g1743
sg43
I0
sg47
F1.0
sbasg121
g8
(g9
(I0
tp1763
g11
tp1764
Rp1765
(I1
(I9
tp1766
g70
I00
S'\x0f\x07n<\xc4\xc3#8\x9a\x1f|?e\xe3:7\xc8x\xa77\xe1\xee\x1b7mc\x938\x1c\xb8\x828\x91\t\xd39'
p1767
tp1768
bsg128
g1743
sg40
I0
sg129
I00
sg130
(lp1769
sg132
F-0.08201874645517104
sg133
I9
sbsba(iMCTS
Action
p1770
(dp1771
g28
I5
sg29
I0
sg34
g1165
sg35
g1178
sg40
I0
sg41
g1178
sg43
I0
sg47
F1.0
sba(iMCTS
Action
p1772
(dp1773
g28
I6
sg29
I0
sg34
g1165
sg35
g1178
sg40
I0
sg41
g1178
sg43
I0
sg47
F1.0
sba(iMCTS
Action
p1774
(dp1775
g28
I7
sg29
I0
sg34
g1165
sg35
g1178
sg40
I0
sg41
g1178
sg43
I0
sg47
F1.0
sba(iMCTS
Action
p1776
(dp1777
g28
I8
sg29
I0
sg34
g1165
sg35
g1178
sg40
I0
sg41
g1178
sg43
I0
sg47
F1.0
sbasg121
g8
(g9
(I0
tp1778
g11
tp1779
Rp1780
(I1
(I9
tp1781
g70
I00
S'\xef\n\xf7<\xd6"07.Lw?\xe6\xb7\x9a7v\x84j8\xa5\xa1\x8b7P\x9d\xd69\x83Q\xa29\\\xb6E;'
p1782
tp1783
bsg128
g1178
sg40
I11
sg129
I00
sg130
(lp1784
g1725
ag30
(g18
S'8G\xc6\xd1\x8f\xa8\xbb\xbf'
p1785
tp1786
Rp1787
ag30
(g18
S'\xacQ\x97H\xf4\xb6\xc7\xbf'
p1788
tp1789
Rp1790
ag30
(g18
S'\x98\xbco9\x15#\xc1\xbf'
p1791
tp1792
Rp1793
ag30
(g18
S'\xe0T~\x88\xb5\xda\xb2\xbf'
p1794
tp1795
Rp1796
ag30
(g18
S'\xe84\x91\x9a\xed\x03\xcd\xbf'
p1797
tp1798
Rp1799
ag30
(g18
S'P\xc1\x13\xca{|\xaa\xbf'
p1800
tp1801
Rp1802
ag30
(g18
S'\xc8\xd3\x8e4\xdf\x1d\xd0\xbf'
p1803
tp1804
Rp1805
ag30
(g18
S'\xe0vB\t\xd9\xb6\xb0\xbf'
p1806
tp1807
Rp1808
ag30
(g18
S'\x90\xa8\x1e0\xa1\x0b\xa3\xbf'
p1809
tp1810
Rp1811
ag30
(g18
S'\xa8k\xa5\xeb\x08i\xd1\xbf'
p1812
tp1813
Rp1814
asg132
F-0.027034469303363062
sg133
I9
sbsba(iMCTS
Action
p1815
(dp1816
g28
I3
sg29
I0
sg34
g1084
sg35
g1146
sg40
I0
sg41
g1146
sg43
I0
sg47
F1.0
sba(iMCTS
Action
p1817
(dp1818
g28
I4
sg29
I0
sg34
g1084
sg35
g1146
sg40
I0
sg41
g1146
sg43
I0
sg47
F1.0
sba(iMCTS
Action
p1819
(dp1820
g28
I5
sg29
I0
sg34
g1084
sg35
g1146
sg40
I0
sg41
g1146
sg43
I0
sg47
F1.0
sba(iMCTS
Action
p1821
(dp1822
g28
I6
sg29
I0
sg34
g1084
sg35
g1146
sg40
I0
sg41
g1146
sg43
I0
sg47
F1.0
sba(iMCTS
Action
p1823
(dp1824
g28
I7
sg29
I0
sg34
g1084
sg35
g1146
sg40
I0
sg41
g1146
sg43
I0
sg47
F1.0
sba(iMCTS
Action
p1825
(dp1826
g28
I8
sg29
I0
sg34
g1084
sg35
g1146
sg40
I0
sg41
g1146
sg43
I0
sg47
F1.0
sbasg121
g8
(g9
(I0
tp1827
g11
tp1828
Rp1829
(I1
(I9
tp1830
g70
I00
S']\xbe\x00>\xd1\x0c\xe77/\xc4^?/\xa7\x068\xd8\x9c\xba8G\x1d\xf37T_\x8f:\xfa2\x9b9\xb2~%;'
p1831
tp1832
bsg128
g1146
sg40
I13
sg129
I00
sg130
(lp1833
g1097
ag30
(g18
S'\x88\xe6\xc2\x90\x1b\xbf\xc3\xbf'
p1834
tp1835
Rp1836
ag30
(g18
S'\xc4o\x9a-\x93\x01\xcd\xbf'
p1837
tp1838
Rp1839
ag30
(g18
S'$\n\xa6y%J\xc1\xbf'
p1840
tp1841
Rp1842
ag30
(g18
S'48Z\xd9\xd1,\xcb\xbf'
p1843
tp1844
Rp1845
ag30
(g18
S' \xa32\xca\xf2\x98\xc4\xbf'
p1846
tp1847
Rp1848
ag30
(g18
S'\xf0!\x04\xaap\xc6\xb9\xbf'
p1849
tp1850
Rp1851
ag30
(g18
S'\xb8\r\xaa\x95\xe5<\xd0\xbf'
p1852
tp1853
Rp1854
ag30
(g18
S'\xb8\xad\x8f\x06\xf9)\xb4\xbf'
p1855
tp1856
Rp1857
ag30
(g18
S'\x0cG\xf0\xfc\xcd\xd8\xd1\xbf'
p1858
tp1859
Rp1860
ag30
(g18
S'\xf0C\xc8*\x94\xa2\xb7\xbf'
p1861
tp1862
Rp1863
ag30
(g18
S'X!\x95\xb9\x8bq\xb0\xbf'
p1864
tp1865
Rp1866
ag30
(g18
S'\xec\xde\x06\xb4\xf7#\xd3\xbf'
p1867
tp1868
Rp1869
asg132
F-0.017668928012845475
sg133
I9
sbsba(iMCTS
Action
p1870
(dp1871
g28
I1
sg29
I0
sg34
g1060
sg35
g8
(g9
(I0
tp1872
g11
tp1873
Rp1874
(I1
(I1
I1
tp1875
g70
I00
S'\x00[f\xbd'
p1876
tp1877
bsg40
I0
sg41
g1874
sg43
I0
sg47
F1.0
sba(iMCTS
Action
p1878
(dp1879
g28
I2
sg29
g30
(g18
S'\xb5Z\xaa\x1aa\xab\xa0?'
p1880
tp1881
Rp1882
sg34
g1060
sg35
g30
(g18
S'\xd5\xbe\xceV\x8d\xf1\xc1\xbf'
p1883
tp1884
Rp1885
sg39
g1885
sg40
I7
sg41
F-0.14018408526089013
sg42
g1882
sg43
g30
(g18
S'\xf4\xcd\xe9W\xb7f\xef\xbf'
p1886
tp1887
Rp1888
sg47
g30
(g18
S'\xf1x8\xce\xd69v?'
p1889
tp1890
Rp1891
sg51
g0
(g1
g2
Ntp1892
Rp1893
(dp1894
g6
g1878
sg7
g8
(g9
(I0
tp1895
g11
tp1896
Rp1897
(I1
(I2
tp1898
g18
I00
S'\x00\x00\x00\x00B\x9f\xe0\xbf\x00\x00\x00\x00\xc0\xbc\xbf?'
p1899
tp1900
bsg23
Nsg24
(lp1901
(iMCTS
Action
p1902
(dp1903
g28
I0
sg29
g30
(g18
S'\x82SXV\x1e\xc6\x81?'
p1904
tp1905
Rp1906
sg34
g1893
sg35
g30
(g18
S'\xad=s\x12Z\xbf\xc5\xbf'
p1907
tp1908
Rp1909
sg39
g1909
sg40
I3
sg41
F-0.16990209484945976
sg42
g1906
sg43
g30
(g18
S'Bn\xd6\x8d\x83O\xe0\xbf'
p1910
tp1911
Rp1912
sg47
g30
(g18
S'\x82SXV\x1e\xc6q?'
p1913
tp1914
Rp1915
sg51
g0
(g1
g2
Ntp1916
Rp1917
(dp1918
g6
g1902
sg7
g8
(g9
(I0
tp1919
g11
tp1920
Rp1921
(I1
(I2
tp1922
g18
I00
S'\x00\x00\x00\x00\xa9\x80\xe0\xbf\x00\x00\x00\x00\xdc\r\xc8?'
p1923
tp1924
bsg23
Nsg24
(lp1925
(iMCTS
Action
p1926
(dp1927
g28
I0
sg29
I0
sg34
g1917
sg35
g30
(g18
S'\x0c\xd0\x9dg\xa8T\xc7\xbf'
p1928
tp1929
Rp1930
sg39
g1930
sg40
I1
sg41
F-0.18227105197331672
sg42
F0.0
sg43
g30
(g18
S'\x0c\xd0\x9dg\xa8T\xc7\xbf'
p1931
tp1932
Rp1933
sg47
I0
sg51
g0
(g1
g2
Ntp1934
Rp1935
(dp1936
g6
g1926
sg7
g8
(g9
(I0
tp1937
g11
tp1938
Rp1939
(I1
(I2
tp1940
g18
I00
S'\x00\x00\x00\x00\xe2\x14\xdd\xbf\x00\x00\x00\x00\xc8\x18\xd5?'
p1941
tp1942
bsg23
Nsg24
(lp1943
(iMCTS
Action
p1944
(dp1945
g28
I0
sg29
I0
sg34
g1935
sg35
g8
(g9
(I0
tp1946
g11
tp1947
Rp1948
(I1
(I1
I1
tp1949
g70
I00
S'n7\x19\xbe'
p1950
tp1951
bsg40
I0
sg41
g1948
sg43
I0
sg47
F1.0
sba(iMCTS
Action
p1952
(dp1953
g28
I1
sg29
I0
sg34
g1935
sg35
g1948
sg40
I0
sg41
g1948
sg43
I0
sg47
F1.0
sba(iMCTS
Action
p1954
(dp1955
g28
I2
sg29
I0
sg34
g1935
sg35
g1948
sg40
I0
sg41
g1948
sg43
I0
sg47
F1.0
sba(iMCTS
Action
p1956
(dp1957
g28
I3
sg29
I0
sg34
g1935
sg35
g1948
sg40
I0
sg41
g1948
sg43
I0
sg47
F1.0
sba(iMCTS
Action
p1958
(dp1959
g28
I4
sg29
I0
sg34
g1935
sg35
g1948
sg40
I0
sg41
g1948
sg43
I0
sg47
F1.0
sba(iMCTS
Action
p1960
(dp1961
g28
I5
sg29
I0
sg34
g1935
sg35
g1948
sg40
I0
sg41
g1948
sg43
I0
sg47
F1.0
sba(iMCTS
Action
p1962
(dp1963
g28
I6
sg29
I0
sg34
g1935
sg35
g1948
sg40
I0
sg41
g1948
sg43
I0
sg47
F1.0
sba(iMCTS
Action
p1964
(dp1965
g28
I7
sg29
I0
sg34
g1935
sg35
g1948
sg40
I0
sg41
g1948
sg43
I0
sg47
F1.0
sba(iMCTS
Action
p1966
(dp1967
g28
I8
sg29
I0
sg34
g1935
sg35
g1948
sg40
I0
sg41
g1948
sg43
I0
sg47
F1.0
sbasg121
g8
(g9
(I0
tp1968
g11
tp1969
Rp1970
(I1
(I9
tp1971
g70
I00
S'\xffs\x8e<X\x96\xd36>Gz?e;\x827m\xbcV8K\x1bk7\t\x87\x9e9X\xbe\xc89\xc7B\x89;'
p1972
tp1973
bsg128
g1948
sg40
I0
sg129
I00
sg130
(lp1974
sg132
F-0.032645541995976024
sg133
I9
sbsba(iMCTS
Action
p1975
(dp1976
g28
I1
sg29
I0
sg34
g1917
sg35
g8
(g9
(I0
tp1977
g11
tp1978
Rp1979
(I1
(I1
I1
tp1980
g70
I00
S'LN\xa6\xbd'
p1981
tp1982
bsg40
I0
sg41
g1979
sg43
I0
sg47
F1.0
sba(iMCTS
Action
p1983
(dp1984
g28
I2
sg29
I0
sg34
g1917
sg35
g1979
sg40
I0
sg41
g1979
sg43
I0
sg47
F1.0
sba(iMCTS
Action
p1985
(dp1986
g28
I3
sg29
I0
sg34
g1917
sg35
g30
(g18
S'\xa4\x18v\x8b";\xca\xbf'
p1987
tp1988
Rp1989
sg39
g1989
sg40
I1
sg41
F-0.2049296551669545
sg42
F0.0
sg43
g30
(g18
S'\xa4\x18v\x8b";\xca\xbf'
p1990
tp1991
Rp1992
sg47
I0
sg51
g0
(g1
g2
Ntp1993
Rp1994
(dp1995
g6
g1985
sg7
g8
(g9
(I0
tp1996
g11
tp1997
Rp1998
(I1
(I2
tp1999
g18
I00
S'\x00\x00\x00\x00\x13\x98\xe3\xbf\x00\x00\x00\x00\xae\x93\xd1?'
p2000
tp2001
bsg23
Nsg24
(lp2002
(iMCTS
Action
p2003
(dp2004
g28
I0
sg29
I0
sg34
g1994
sg35
g8
(g9
(I0
tp2005
g11
tp2006
Rp2007
(I1
(I1
I1
tp2008
g70
I00
S',\x0c\xe3\xbd'
p2009
tp2010
bsg40
I0
sg41
g2007
sg43
I0
sg47
F1.0
sba(iMCTS
Action
p2011
(dp2012
g28
I1
sg29
I0
sg34
g1994
sg35
g2007
sg40
I0
sg41
g2007
sg43
I0
sg47
F1.0
sba(iMCTS
Action
p2013
(dp2014
g28
I2
sg29
I0
sg34
g1994
sg35
g2007
sg40
I0
sg41
g2007
sg43
I0
sg47
F1.0
sba(iMCTS
Action
p2015
(dp2016
g28
I3
sg29
I0
sg34
g1994
sg35
g2007
sg40
I0
sg41
g2007
sg43
I0
sg47
F1.0
sba(iMCTS
Action
p2017
(dp2018
g28
I4
sg29
I0
sg34
g1994
sg35
g2007
sg40
I0
sg41
g2007
sg43
I0
sg47
F1.0
sba(iMCTS
Action
p2019
(dp2020
g28
I5
sg29
I0
sg34
g1994
sg35
g2007
sg40
I0
sg41
g2007
sg43
I0
sg47
F1.0
sba(iMCTS
Action
p2021
(dp2022
g28
I6
sg29
I0
sg34
g1994
sg35
g2007
sg40
I0
sg41
g2007
sg43
I0
sg47
F1.0
sba(iMCTS
Action
p2023
(dp2024
g28
I7
sg29
I0
sg34
g1994
sg35
g2007
sg40
I0
sg41
g2007
sg43
I0
sg47
F1.0
sba(iMCTS
Action
p2025
(dp2026
g28
I8
sg29
I0
sg34
g1994
sg35
g2007
sg40
I0
sg41
g2007
sg43
I0
sg47
F1.0
sbasg121
g8
(g9
(I0
tp2027
g11
tp2028
Rp2029
(I1
(I9
tp2030
g70
I00
S',\x82\x85<\xab\xc7\x848\xf1\xb4{?\xe9b?7\xa5\x06\x977\x1b\xc9\x1c7\x93\xcdw8\x91\xb8>8\xb6\xa4\x8b9'
p2031
tp2032
bsg128
g2007
sg40
I0
sg129
I00
sg130
(lp2033
sg132
F-0.09406659540781448
sg133
I9
sbsba(iMCTS
Action
p2034
(dp2035
g28
I4
sg29
I0
sg34
g1917
sg35
g1979
sg40
I0
sg41
g1979
sg43
I0
sg47
F1.0
sba(iMCTS
Action
p2036
(dp2037
g28
I5
sg29
I0
sg34
g1917
sg35
g1979
sg40
I0
sg41
g1979
sg43
I0
sg47
F1.0
sba(iMCTS
Action
p2038
(dp2039
g28
I6
sg29
I0
sg34
g1917
sg35
g1979
sg40
I0
sg41
g1979
sg43
I0
sg47
F1.0
sba(iMCTS
Action
p2040
(dp2041
g28
I7
sg29
I0
sg34
g1917
sg35
g1979
sg40
I0
sg41
g1979
sg43
I0
sg47
F1.0
sba(iMCTS
Action
p2042
(dp2043
g28
I8
sg29
I0
sg34
g1917
sg35
g1979
sg40
I0
sg41
g1979
sg43
I0
sg47
F1.0
sbasg121
g8
(g9
(I0
tp2044
g11
tp2045
Rp2046
(I1
(I9
tp2047
g70
I00
S'K_x>2\xc2\x198H\xa1@?\x9d\xca*8\xdat\xec8\x90\xa4\x1a8\x91\xc9\xef:\x1f\xdd\xa39\xd6\xa4+;'
p2048
tp2049
bsg128
g1979
sg40
I2
sg129
I00
sg130
(lp2050
g1989
ag1930
asg132
F-0.01376718349020778
sg133
I9
sbsba(iMCTS
Action
p2051
(dp2052
g28
I1
sg29
I0
sg34
g1893
sg35
g8
(g9
(I0
tp2053
g11
tp2054
Rp2055
(I1
(I1
I1
tp2056
g70
I00
S'\xd0\x19y\xbd'
p2057
tp2058
bsg40
I0
sg41
g2055
sg43
I0
sg47
F1.0
sba(iMCTS
Action
p2059
(dp2060
g28
I2
sg29
g30
(g18
S'\xb6\x9ak6S`\x8d?'
p2061
tp2062
Rp2063
sg34
g1893
sg35
g30
(g18
S'R\x89\x9d\xa1H!\xc0\xbf'
p2064
tp2065
Rp2066
sg39
g2066
sg40
I2
sg41
F-0.12601573840499697
sg42
g2063
sg43
g30
(g18
S'R\x89\x9d\xa1H!\xd0\xbf'
p2067
tp2068
Rp2069
sg47
g30
(g18
S'\xb6\x9ak6S`\x8d?'
p2070
tp2071
Rp2072
sg51
g0
(g1
g2
Ntp2073
Rp2074
(dp2075
g6
g2059
sg7
g8
(g9
(I0
tp2076
g11
tp2077
Rp2078
(I1
(I2
tp2079
g18
I00
S'\x00\x00\x00\x00\x86|\xe0\xbf\x00\x00\x00\x00\x98\x0e\xa8?'
p2080
tp2081
bsg23
Nsg24
(lp2082
(iMCTS
Action
p2083
(dp2084
g28
I0
sg29
I0
sg34
g2074
sg35
g8
(g9
(I0
tp2085
g11
tp2086
Rp2087
(I1
(I1
I1
tp2088
g70
I00
S"\xc0\xdc'\xbd"
p2089
tp2090
bsg40
I0
sg41
g2087
sg43
I0
sg47
F1.0
sba(iMCTS
Action
p2091
(dp2092
g28
I1
sg29
I0
sg34
g2074
sg35
g2087
sg40
I0
sg41
g2087
sg43
I0
sg47
F1.0
sba(iMCTS
Action
p2093
(dp2094
g28
I2
sg29
I0
sg34
g2074
sg35
g2087
sg40
I0
sg41
g2087
sg43
I0
sg47
F1.0
sba(iMCTS
Action
p2095
(dp2096
g28
I3
sg29
I0
sg34
g2074
sg35
g2087
sg40
I0
sg41
g2087
sg43
I0
sg47
F1.0
sba(iMCTS
Action
p2097
(dp2098
g28
I4
sg29
I0
sg34
g2074
sg35
g2087
sg40
I0
sg41
g2087
sg43
I0
sg47
F1.0
sba(iMCTS
Action
p2099
(dp2100
g28
I5
sg29
I0
sg34
g2074
sg35
g2087
sg40
I0
sg41
g2087
sg43
I0
sg47
F1.0
sba(iMCTS
Action
p2101
(dp2102
g28
I6
sg29
I0
sg34
g2074
sg35
g2087
sg40
I0
sg41
g2087
sg43
I0
sg47
F1.0
sba(iMCTS
Action
p2103
(dp2104
g28
I7
sg29
I0
sg34
g2074
sg35
g30
(g18
S'\x1c\xb7ZT\xf7\xec\xca\xbf'
p2105
tp2106
Rp2107
sg39
g2107
sg40
I1
sg41
F-0.2103566324125773
sg42
F0.0
sg43
g30
(g18
S'\x1c\xb7ZT\xf7\xec\xca\xbf'
p2108
tp2109
Rp2110
sg47
I0
sg51
g0
(g1
g2
Ntp2111
Rp2112
(dp2113
g6
g2103
sg7
g8
(g9
(I0
tp2114
g11
tp2115
Rp2116
(I1
(I2
tp2117
g18
I00
S'\x00\x00\x00\x00$O\xe8\xbf\x00\x00\x00\x00,6\xb0?'
p2118
tp2119
bsg23
Nsg24
(lp2120
(iMCTS
Action
p2121
(dp2122
g28
I0
sg29
I0
sg34
g2112
sg35
g8
(g9
(I0
tp2123
g11
tp2124
Rp2125
(I1
(I1
I1
tp2126
g70
I00
S'\x90\x835\xbd'
p2127
tp2128
bsg40
I0
sg41
g2125
sg43
I0
sg47
F1.0
sba(iMCTS
Action
p2129
(dp2130
g28
I1
sg29
I0
sg34
g2112
sg35
g2125
sg40
I0
sg41
g2125
sg43
I0
sg47
F1.0
sba(iMCTS
Action
p2131
(dp2132
g28
I2
sg29
I0
sg34
g2112
sg35
g2125
sg40
I0
sg41
g2125
sg43
I0
sg47
F1.0
sba(iMCTS
Action
p2133
(dp2134
g28
I3
sg29
I0
sg34
g2112
sg35
g2125
sg40
I0
sg41
g2125
sg43
I0
sg47
F1.0
sba(iMCTS
Action
p2135
(dp2136
g28
I4
sg29
I0
sg34
g2112
sg35
g2125
sg40
I0
sg41
g2125
sg43
I0
sg47
F1.0
sba(iMCTS
Action
p2137
(dp2138
g28
I5
sg29
I0
sg34
g2112
sg35
g2125
sg40
I0
sg41
g2125
sg43
I0
sg47
F1.0
sba(iMCTS
Action
p2139
(dp2140
g28
I6
sg29
I0
sg34
g2112
sg35
g2125
sg40
I0
sg41
g2125
sg43
I0
sg47
F1.0
sba(iMCTS
Action
p2141
(dp2142
g28
I7
sg29
I0
sg34
g2112
sg35
g2125
sg40
I0
sg41
g2125
sg43
I0
sg47
F1.0
sba(iMCTS
Action
p2143
(dp2144
g28
I8
sg29
I0
sg34
g2112
sg35
g2125
sg40
I0
sg41
g2125
sg43
I0
sg47
F1.0
sbasg121
g8
(g9
(I0
tp2145
g11
tp2146
Rp2147
(I1
(I9
tp2148
g70
I00
S'H\xef<?\x99\xad\x17;+\xb6\x84>\xd5\xe6#8\xef\x97\x0f8#\x06\xf27\xc8\x91\x979D"m7\xe9\xe5X8'
p2149
tp2150
bsg128
g2125
sg40
I0
sg129
I00
sg130
(lp2151
sg132
F-0.1660417115103251
sg133
I9
sbsba(iMCTS
Action
p2152
(dp2153
g28
I8
sg29
I0
sg34
g2074
sg35
g2087
sg40
I0
sg41
g2087
sg43
I0
sg47
F1.0
sbasg121
g8
(g9
(I0
tp2154
g11
tp2155
Rp2156
(I1
(I9
tp2157
g70
I00
S'\xf7fq?\x91\x9e\x877\xe2\xbeR=\xbf2\xb77\xf4\xa1\x8e8\x02\xfe\xa87c\xf7\x93;\x90W\xc38\xf7,[:'
p2158
tp2159
bsg128
g2087
sg40
I1
sg129
I00
sg130
(lp2160
g2107
asg132
F-0.00034641820853498206
sg133
I9
sbsba(iMCTS
Action
p2161
(dp2162
g28
I3
sg29
I0
sg34
g1893
sg35
g2055
sg40
I0
sg41
g2055
sg43
I0
sg47
F1.0
sba(iMCTS
Action
p2163
(dp2164
g28
I4
sg29
I0
sg34
g1893
sg35
g2055
sg40
I0
sg41
g2055
sg43
I0
sg47
F1.0
sba(iMCTS
Action
p2165
(dp2166
g28
I5
sg29
I0
sg34
g1893
sg35
g30
(g18
S'\xd8b-\xad?\xcb\xbe\xbf'
p2167
tp2168
Rp2169
sg39
g2169
sg40
I1
sg41
F-0.12028882959328813
sg42
F0.0
sg43
g30
(g18
S'\xd8b-\xad?\xcb\xbe\xbf'
p2170
tp2171
Rp2172
sg47
I0
sg51
g0
(g1
g2
Ntp2173
Rp2174
(dp2175
g6
g2165
sg7
g8
(g9
(I0
tp2176
g11
tp2177
Rp2178
(I1
(I2
tp2179
g18
I00
S'\x00\x00\x00\x00\x04\x15\xe4\xbf\x00\x00\x00\x00p~\xb8?'
p2180
tp2181
bsg23
Nsg24
(lp2182
(iMCTS
Action
p2183
(dp2184
g28
I0
sg29
I0
sg34
g2174
sg35
g8
(g9
(I0
tp2185
g11
tp2186
Rp2187
(I1
(I1
I1
tp2188
g70
I00
S"\xa8'L\xbd"
p2189
tp2190
bsg40
I0
sg41
g2187
sg43
I0
sg47
F1.0
sba(iMCTS
Action
p2191
(dp2192
g28
I1
sg29
I0
sg34
g2174
sg35
g2187
sg40
I0
sg41
g2187
sg43
I0
sg47
F1.0
sba(iMCTS
Action
p2193
(dp2194
g28
I2
sg29
I0
sg34
g2174
sg35
g2187
sg40
I0
sg41
g2187
sg43
I0
sg47
F1.0
sba(iMCTS
Action
p2195
(dp2196
g28
I3
sg29
I0
sg34
g2174
sg35
g2187
sg40
I0
sg41
g2187
sg43
I0
sg47
F1.0
sba(iMCTS
Action
p2197
(dp2198
g28
I4
sg29
I0
sg34
g2174
sg35
g2187
sg40
I0
sg41
g2187
sg43
I0
sg47
F1.0
sba(iMCTS
Action
p2199
(dp2200
g28
I5
sg29
I0
sg34
g2174
sg35
g2187
sg40
I0
sg41
g2187
sg43
I0
sg47
F1.0
sba(iMCTS
Action
p2201
(dp2202
g28
I6
sg29
I0
sg34
g2174
sg35
g2187
sg40
I0
sg41
g2187
sg43
I0
sg47
F1.0
sba(iMCTS
Action
p2203
(dp2204
g28
I7
sg29
I0
sg34
g2174
sg35
g2187
sg40
I0
sg41
g2187
sg43
I0
sg47
F1.0
sba(iMCTS
Action
p2205
(dp2206
g28
I8
sg29
I0
sg34
g2174
sg35
g2187
sg40
I0
sg41
g2187
sg43
I0
sg47
F1.0
sbasg121
g8
(g9
(I0
tp2207
g11
tp2208
Rp2209
(I1
(I9
tp2210
g70
I00
S'\x10H0?H\xb2q99n\x9e>\x8f\xab(8\xca:\x8e8[\xac\x0c8\x82y\x96:V\xcd\x8e8\x9b\xf9\xc59'
p2211
tp2212
bsg128
g2187
sg40
I0
sg129
I00
sg130
(lp2213
sg132
F-0.07044632294617814
sg133
I9
sbsba(iMCTS
Action
p2214
(dp2215
g28
I6
sg29
I0
sg34
g1893
sg35
g2055
sg40
I0
sg41
g2055
sg43
I0
sg47
F1.0
sba(iMCTS
Action
p2216
(dp2217
g28
I7
sg29
I0
sg34
g1893
sg35
g2055
sg40
I0
sg41
g2055
sg43
I0
sg47
F1.0
sba(iMCTS
Action
p2218
(dp2219
g28
I8
sg29
I0
sg34
g1893
sg35
g2055
sg40
I0
sg41
g2055
sg43
I0
sg47
F1.0
sbasg121
g8
(g9
(I0
tp2220
g11
tp2221
Rp2222
(I1
(I9
tp2223
g70
I00
S"d\xa2%?\x94~%8\xd1d\xb1>\xe6\xa6<8\t(\x079~+,8\x80Y|;8'\x869\x1di\r;"
p2224
tp2225
bsg128
g2055
sg40
I6
sg129
I00
sg130
(lp2226
g2169
ag30
(g18
S'\x905\xd9\x82\x08P\xb8\xbf'
p2227
tp2228
Rp2229
ag30
(g18
S'\x10\xb7\xc0\xdd\xff(\xa5\xbf'
p2230
tp2231
Rp2232
ag30
(g18
S'l\xb3\xe2\x0cB\xfe\xcb\xbf'
p2233
tp2234
Rp2235
ag30
(g18
S'\xe0\xe4\xcaKQ\xf8\xca\xbf'
p2236
tp2237
Rp2238
ag30
(g18
S'\xd4j\n\xe9\xc7\x17\xc9\xbf'
p2239
tp2240
Rp2241
asg132
F-0.005492339075896746
sg133
I9
sbsba(iMCTS
Action
p2242
(dp2243
g28
I3
sg29
I0
sg34
g1060
sg35
g1874
sg40
I0
sg41
g1874
sg43
I0
sg47
F1.0
sba(iMCTS
Action
p2244
(dp2245
g28
I4
sg29
I0
sg34
g1060
sg35
g1874
sg40
I0
sg41
g1874
sg43
I0
sg47
F1.0
sba(iMCTS
Action
p2246
(dp2247
g28
I5
sg29
I0
sg34
g1060
sg35
g1874
sg40
I0
sg41
g1874
sg43
I0
sg47
F1.0
sba(iMCTS
Action
p2248
(dp2249
g28
I6
sg29
I0
sg34
g1060
sg35
g1874
sg40
I0
sg41
g1874
sg43
I0
sg47
F1.0
sba(iMCTS
Action
p2250
(dp2251
g28
I7
sg29
I0
sg34
g1060
sg35
g1874
sg40
I0
sg41
g1874
sg43
I0
sg47
F1.0
sba(iMCTS
Action
p2252
(dp2253
g28
I8
sg29
I0
sg34
g1060
sg35
g30
(g18
S' 0\xba\x8a\x17s\xd0\xbf'
p2254
tp2255
Rp2256
sg39
g2256
sg40
I1
sg41
F-0.2570246557959326
sg42
F0.0
sg43
g30
(g18
S' 0\xba\x8a\x17s\xd0\xbf'
p2257
tp2258
Rp2259
sg47
I0
sg51
g0
(g1
g2
Ntp2260
Rp2261
(dp2262
g6
g2252
sg7
g8
(g9
(I0
tp2263
g11
tp2264
Rp2265
(I1
(I2
tp2266
g18
I00
S'\x00\x00\x00\x00\xe3\x90\xe9\xbf\x00\x00\x00\x00\x08\xd2\xba?'
p2267
tp2268
bsg23
Nsg24
(lp2269
(iMCTS
Action
p2270
(dp2271
g28
I0
sg29
I0
sg34
g2261
sg35
g8
(g9
(I0
tp2272
g11
tp2273
Rp2274
(I1
(I1
I1
tp2275
g70
I00
S'X\x94l\xbd'
p2276
tp2277
bsg40
I0
sg41
g2274
sg43
I0
sg47
F1.0
sba(iMCTS
Action
p2278
(dp2279
g28
I1
sg29
I0
sg34
g2261
sg35
g2274
sg40
I0
sg41
g2274
sg43
I0
sg47
F1.0
sba(iMCTS
Action
p2280
(dp2281
g28
I2
sg29
I0
sg34
g2261
sg35
g2274
sg40
I0
sg41
g2274
sg43
I0
sg47
F1.0
sba(iMCTS
Action
p2282
(dp2283
g28
I3
sg29
I0
sg34
g2261
sg35
g2274
sg40
I0
sg41
g2274
sg43
I0
sg47
F1.0
sba(iMCTS
Action
p2284
(dp2285
g28
I4
sg29
I0
sg34
g2261
sg35
g2274
sg40
I0
sg41
g2274
sg43
I0
sg47
F1.0
sba(iMCTS
Action
p2286
(dp2287
g28
I5
sg29
I0
sg34
g2261
sg35
g2274
sg40
I0
sg41
g2274
sg43
I0
sg47
F1.0
sba(iMCTS
Action
p2288
(dp2289
g28
I6
sg29
I0
sg34
g2261
sg35
g2274
sg40
I0
sg41
g2274
sg43
I0
sg47
F1.0
sba(iMCTS
Action
p2290
(dp2291
g28
I7
sg29
I0
sg34
g2261
sg35
g2274
sg40
I0
sg41
g2274
sg43
I0
sg47
F1.0
sba(iMCTS
Action
p2292
(dp2293
g28
I8
sg29
I0
sg34
g2261
sg35
g2274
sg40
I0
sg41
g2274
sg43
I0
sg47
F1.0
sbasg121
g8
(g9
(I0
tp2294
g11
tp2295
Rp2296
(I1
(I9
tp2297
g70
I00
S"\xdcT\xc6>\xf3\xb8\xb2;V]\x1b?k578\xfd\x0c\xff7\xfc\xef\x018\xd1\xde\x079%sI7\xa3\xd7'8"
p2298
tp2299
bsg128
g2274
sg40
I0
sg129
I00
sg130
(lp2300
sg132
F-0.1992659966715582
sg133
I9
sbsbasg121
g8
(g9
(I0
tp2301
g11
tp2302
Rp2303
(I1
(I9
tp2304
g70
I00
S"\x0f\xb9>?\xd3R\x128\x1fe~>\x1ee,8S'\xfb8\xda\xbc\x1d8\xe0\x9c\x8a;:of9H~\xf5:"
p2305
tp2306
bsg128
g1874
sg40
I22
sg129
I00
sg130
(lp2307
g2256
ag30
(g18
S'\xf0u\xf8k\xaaV\xbc\xbf'
p2308
tp2309
Rp2310
ag30
(g18
S'\xf0\xaat\x91\x91\x0c\xd3\xbf'
p2311
tp2312
Rp2313
ag30
(g18
S'\x10\xa3\xb5(\x8f\xf9\xb0\xbf'
p2314
tp2315
Rp2316
ag30
(g18
S'\xf4\x82\xf1\xea\x98\x19\xc0\xbf'
p2317
tp2318
Rp2319
ag30
(g18
S'\x80!\xbfF\x15\x02\xc6\xbf'
p2320
tp2321
Rp2322
ag30
(g18
S'\xbc\xaa\x96\xe3\x8cD\xcf\xbf'
p2323
tp2324
Rp2325
ag30
(g18
S'\xa0\xd8\x8e\xab\xfa\xb7\xb9\xbf'
p2326
tp2327
Rp2328
ag30
(g18
S'\x1cE\xa2/\x1f\x8d\xc3\xbf'
p2329
tp2330
Rp2331
ag30
(g18
S',sV\x8f\xcbo\xcd\xbf'
p2332
tp2333
Rp2334
ag30
(g18
S'0\xfd+/\xe4\xf8\xa7\xbf'
p2335
tp2336
Rp2337
ag30
(g18
S'\xf4\x84=!;\xb2\xcc\xbf'
p2338
tp2339
Rp2340
ag30
(g18
S'\x18\xde.\x80\xec\xdb\xc6\xbf'
p2341
tp2342
Rp2343
ag30
(g18
S'\xe0\x97\xfc\x15dL\xbe\xbf'
p2344
tp2345
Rp2346
ag30
(g18
S'4+\xa8pb^\xd1\xbf'
p2347
tp2348
Rp2349
ag30
(g18
S'h\xb6%`J\xac\xcb\xbf'
p2350
tp2351
Rp2352
ag30
(g18
S'\xa8#\x88r\xec\xaf\xb8\xbf'
p2353
tp2354
Rp2355
ag30
(g18
S'\x88d\xee\xd7J\xfa\xd2\xbf'
p2356
tp2357
Rp2358
ag30
(g18
S'\xe0\xb9\xc0\x96\x87(\xbc\xbf'
p2359
tp2360
Rp2361
ag30
(g18
S'H\x97\x8d%\x7f\xf7\xb4\xbf'
p2362
tp2363
Rp2364
ag30
(g18
S'\\<e\xfd\xc0\xcb\xc9\xbf'
p2365
tp2366
Rp2367
ag30
(g18
S'h\xfc\x04\x8ftE\xd4\xbf'
p2368
tp2369
Rp2370
asg132
F-0.004083017633075392
sg133
I9
sbsba(iMCTS
Action
p2371
(dp2372
g28
I1
sg29
I0
sg34
g1036
sg35
g8
(g9
(I0
tp2373
g11
tp2374
Rp2375
(I1
(I1
I1
tp2376
g70
I00
S' 9$\xbd'
p2377
tp2378
bsg40
I0
sg41
g2375
sg43
I0
sg47
F1.0
sba(iMCTS
Action
p2379
(dp2380
g28
I2
sg29
g30
(g18
S'\xfa\xb9g\x89\xba#\x87?'
p2381
tp2382
Rp2383
sg34
g1036
sg35
g30
(g18
S'\x0eG\r\xa7\x1a\xe3\xb0\xbf'
p2384
tp2385
Rp2386
sg39
g2386
sg40
I4
sg41
F-0.06596533373274502
sg42
g2383
sg43
g30
(g18
S'\x0eG\r\xa7\x1a\xe3\xd0\xbf'
p2387
tp2388
Rp2389
sg47
g30
(g18
S'MM\x8a\x0cN\xdan?'
p2390
tp2391
Rp2392
sg51
g0
(g1
g2
Ntp2393
Rp2394
(dp2395
g6
g2379
sg7
g8
(g9
(I0
tp2396
g11
tp2397
Rp2398
(I1
(I2
tp2399
g18
I00
S'\x00\x00\x00\x00\xf2\x83\xe0\xbf\x00\x00\x00\x000\xbb\x9c?'
p2400
tp2401
bsg23
Nsg24
(lp2402
(iMCTS
Action
p2403
(dp2404
g28
I0
sg29
g30
(g18
S'\xa2\xc3\xe1\xfd\xa9\xaau?'
p2405
tp2406
Rp2407
sg34
g2394
sg35
g30
(g18
S'|\xf5\xb7*\xfd\xa2\xba\xbf'
p2408
tp2409
Rp2410
sg39
g2410
sg40
I2
sg41
F-0.10404951374944987
sg42
g2407
sg43
g30
(g18
S'|\xf5\xb7*\xfd\xa2\xca\xbf'
p2411
tp2412
Rp2413
sg47
g30
(g18
S'\xa2\xc3\xe1\xfd\xa9\xaau?'
p2414
tp2415
Rp2416
sg51
g0
(g1
g2
Ntp2417
Rp2418
(dp2419
g6
g2403
sg7
g8
(g9
(I0
tp2420
g11
tp2421
Rp2422
(I1
(I2
tp2423
g18
I00
S'\x00\x00\x00\x00\xf9\x9f\xe0\xbf\x00\x00\x00\x00(\xd0\xb5?'
p2424
tp2425
bsg23
Nsg24
(lp2426
(iMCTS
Action
p2427
(dp2428
g28
I0
sg29
I0
sg34
g2418
sg35
g8
(g9
(I0
tp2429
g11
tp2430
Rp2431
(I1
(I1
I1
tp2432
g70
I00
S'\xa0\x88M\xbd'
p2433
tp2434
bsg40
I0
sg41
g2431
sg43
I0
sg47
F1.0
sba(iMCTS
Action
p2435
(dp2436
g28
I1
sg29
I0
sg34
g2418
sg35
g2431
sg40
I0
sg41
g2431
sg43
I0
sg47
F1.0
sba(iMCTS
Action
p2437
(dp2438
g28
I2
sg29
I0
sg34
g2418
sg35
g2431
sg40
I0
sg41
g2431
sg43
I0
sg47
F1.0
sba(iMCTS
Action
p2439
(dp2440
g28
I3
sg29
I0
sg34
g2418
sg35
g30
(g18
S'\xec\x06\xfaS\xaa\x96\xc3\xbf'
p2441
tp2442
Rp2443
sg39
g2443
sg40
I1
sg41
F-0.153035441402657
sg42
F0.0
sg43
g30
(g18
S'\xec\x06\xfaS\xaa\x96\xc3\xbf'
p2444
tp2445
Rp2446
sg47
I0
sg51
g0
(g1
g2
Ntp2447
Rp2448
(dp2449
g6
g2439
sg7
g8
(g9
(I0
tp2450
g11
tp2451
Rp2452
(I1
(I2
tp2453
g18
I00
S'\x00\x00\x00\x00\xc5?\xe4\xbf\x00\x00\x00\x00\xe0\xa9\xc5?'
p2454
tp2455
bsg23
Nsg24
(lp2456
(iMCTS
Action
p2457
(dp2458
g28
I0
sg29
I0
sg34
g2448
sg35
g8
(g9
(I0
tp2459
g11
tp2460
Rp2461
(I1
(I1
I1
tp2462
g70
I00
S'\xa0\xeb\x91\xbd'
p2463
tp2464
bsg40
I0
sg41
g2461
sg43
I0
sg47
F1.0
sba(iMCTS
Action
p2465
(dp2466
g28
I1
sg29
I0
sg34
g2448
sg35
g2461
sg40
I0
sg41
g2461
sg43
I0
sg47
F1.0
sba(iMCTS
Action
p2467
(dp2468
g28
I2
sg29
I0
sg34
g2448
sg35
g2461
sg40
I0
sg41
g2461
sg43
I0
sg47
F1.0
sba(iMCTS
Action
p2469
(dp2470
g28
I3
sg29
I0
sg34
g2448
sg35
g2461
sg40
I0
sg41
g2461
sg43
I0
sg47
F1.0
sba(iMCTS
Action
p2471
(dp2472
g28
I4
sg29
I0
sg34
g2448
sg35
g2461
sg40
I0
sg41
g2461
sg43
I0
sg47
F1.0
sba(iMCTS
Action
p2473
(dp2474
g28
I5
sg29
I0
sg34
g2448
sg35
g2461
sg40
I0
sg41
g2461
sg43
I0
sg47
F1.0
sba(iMCTS
Action
p2475
(dp2476
g28
I6
sg29
I0
sg34
g2448
sg35
g2461
sg40
I0
sg41
g2461
sg43
I0
sg47
F1.0
sba(iMCTS
Action
p2477
(dp2478
g28
I7
sg29
I0
sg34
g2448
sg35
g2461
sg40
I0
sg41
g2461
sg43
I0
sg47
F1.0
sba(iMCTS
Action
p2479
(dp2480
g28
I8
sg29
I0
sg34
g2448
sg35
g2461
sg40
I0
sg41
g2461
sg43
I0
sg47
F1.0
sbasg121
g8
(g9
(I0
tp2481
g11
tp2482
Rp2483
(I1
(I9
tp2484
g70
I00
S'\xb5&L>I\xddv9\xe5\xa4L?\xd6I\x0f8uw^8\x0e\xe2\xeb7\xd3\x0e\xdd9\xd6\x1f\x9a8\xf9\xef\xcf9'
p2485
tp2486
bsg128
g2461
sg40
I0
sg129
I00
sg130
(lp2487
sg132
F-0.08178524113105057
sg133
I9
sbsba(iMCTS
Action
p2488
(dp2489
g28
I4
sg29
I0
sg34
g2418
sg35
g2431
sg40
I0
sg41
g2431
sg43
I0
sg47
F1.0
sba(iMCTS
Action
p2490
(dp2491
g28
I5
sg29
I0
sg34
g2418
sg35
g2431
sg40
I0
sg41
g2431
sg43
I0
sg47
F1.0
sba(iMCTS
Action
p2492
(dp2493
g28
I6
sg29
I0
sg34
g2418
sg35
g2431
sg40
I0
sg41
g2431
sg43
I0
sg47
F1.0
sba(iMCTS
Action
p2494
(dp2495
g28
I7
sg29
I0
sg34
g2418
sg35
g2431
sg40
I0
sg41
g2431
sg43
I0
sg47
F1.0
sba(iMCTS
Action
p2496
(dp2497
g28
I8
sg29
I0
sg34
g2418
sg35
g2431
sg40
I0
sg41
g2431
sg43
I0
sg47
F1.0
sbasg121
g8
(g9
(I0
tp2498
g11
tp2499
Rp2500
(I1
(I9
tp2501
g70
I00
S'\x8a\xb3X?\x92\x94\xee7b\xdd\x16>\xa7\xb2\x0e8\xfa\xdb\xd28\xd6\xc9\x028\xd1\x94\x90;\xc4\x1c,9\xb5\xf2\xb8:'
p2502
tp2503
bsg128
g2431
sg40
I1
sg129
I00
sg130
(lp2504
g2443
asg132
F-0.002442231108881865
sg133
I9
sbsba(iMCTS
Action
p2505
(dp2506
g28
I1
sg29
I0
sg34
g2394
sg35
g8
(g9
(I0
tp2507
g11
tp2508
Rp2509
(I1
(I1
I1
tp2510
g70
I00
S'\x08\n\x16\xbd'
p2511
tp2512
bsg40
I0
sg41
g2509
sg43
I0
sg47
F1.0
sba(iMCTS
Action
p2513
(dp2514
g28
I2
sg29
I0
sg34
g2394
sg35
g30
(g18
S'\x00\xf4a\xf2P\x00\x93\xbf'
p2515
tp2516
Rp2517
sg39
g2517
sg40
I1
sg41
F-0.01855589370142141
sg42
F0.0
sg43
g30
(g18
S'\x00\xf4a\xf2P\x00\x93\xbf'
p2518
tp2519
Rp2520
sg47
I0
sg51
g0
(g1
g2
Ntp2521
Rp2522
(dp2523
g6
g2513
sg7
g8
(g9
(I0
tp2524
g11
tp2525
Rp2526
(I1
(I2
tp2527
g18
I00
S'\x00\x00\x00\x00\xf8\x96\xe0\xbf\x00\x00\x00\x00tP\xb4\xbf'
p2528
tp2529
bsg23
Nsg24
(lp2530
(iMCTS
Action
p2531
(dp2532
g28
I0
sg29
I0
sg34
g2522
sg35
g8
(g9
(I0
tp2533
g11
tp2534
Rp2535
(I1
(I1
I1
tp2536
g70
I00
S' \xf6\x86\xbc'
p2537
tp2538
bsg40
I0
sg41
g2535
sg43
I0
sg47
F1.0
sba(iMCTS
Action
p2539
(dp2540
g28
I1
sg29
I0
sg34
g2522
sg35
g2535
sg40
I0
sg41
g2535
sg43
I0
sg47
F1.0
sba(iMCTS
Action
p2541
(dp2542
g28
I2
sg29
I0
sg34
g2522
sg35
g2535
sg40
I0
sg41
g2535
sg43
I0
sg47
F1.0
sba(iMCTS
Action
p2543
(dp2544
g28
I3
sg29
I0
sg34
g2522
sg35
g2535
sg40
I0
sg41
g2535
sg43
I0
sg47
F1.0
sba(iMCTS
Action
p2545
(dp2546
g28
I4
sg29
I0
sg34
g2522
sg35
g2535
sg40
I0
sg41
g2535
sg43
I0
sg47
F1.0
sba(iMCTS
Action
p2547
(dp2548
g28
I5
sg29
I0
sg34
g2522
sg35
g2535
sg40
I0
sg41
g2535
sg43
I0
sg47
F1.0
sba(iMCTS
Action
p2549
(dp2550
g28
I6
sg29
I0
sg34
g2522
sg35
g2535
sg40
I0
sg41
g2535
sg43
I0
sg47
F1.0
sba(iMCTS
Action
p2551
(dp2552
g28
I7
sg29
I0
sg34
g2522
sg35
g2535
sg40
I0
sg41
g2535
sg43
I0
sg47
F1.0
sba(iMCTS
Action
p2553
(dp2554
g28
I8
sg29
I0
sg34
g2522
sg35
g2535
sg40
I0
sg41
g2535
sg43
I0
sg47
F1.0
sbasg121
g8
(g9
(I0
tp2555
g11
tp2556
Rp2557
(I1
(I9
tp2558
g70
I00
S'\x86\xed~?\xcc\xfc-6\xe06\x97:\x05\xfd~6\x80\xbeW7|\x03k6w\x03?;[}\x177(\xe7\xb88'
p2559
tp2560
bsg128
g2535
sg40
I0
sg129
I00
sg130
(lp2561
sg132
F-0.002081110280858667
sg133
I9
sbsba(iMCTS
Action
p2562
(dp2563
g28
I3
sg29
I0
sg34
g2394
sg35
g2509
sg40
I0
sg41
g2509
sg43
I0
sg47
F1.0
sba(iMCTS
Action
p2564
(dp2565
g28
I4
sg29
I0
sg34
g2394
sg35
g2509
sg40
I0
sg41
g2509
sg43
I0
sg47
F1.0
sba(iMCTS
Action
p2566
(dp2567
g28
I5
sg29
I0
sg34
g2394
sg35
g2509
sg40
I0
sg41
g2509
sg43
I0
sg47
F1.0
sba(iMCTS
Action
p2568
(dp2569
g28
I6
sg29
I0
sg34
g2394
sg35
g2509
sg40
I0
sg41
g2509
sg43
I0
sg47
F1.0
sba(iMCTS
Action
p2570
(dp2571
g28
I7
sg29
I0
sg34
g2394
sg35
g2509
sg40
I0
sg41
g2509
sg43
I0
sg47
F1.0
sba(iMCTS
Action
p2572
(dp2573
g28
I8
sg29
I0
sg34
g2394
sg35
g2509
sg40
I0
sg41
g2509
sg43
I0
sg47
F1.0
sbasg121
g8
(g9
(I0
tp2574
g11
tp2575
Rp2576
(I1
(I9
tp2577
g70
I00
S'~\rw?\xbf\xe7R7u\x0b\xf5<\x154\x8f7\x9a?a8\n\x1e\x847C\xf2\x8b;\xf1=\x8b8\xda\xa4\x1d:'
p2578
tp2579
bsg128
g2509
sg40
I3
sg129
I00
sg130
(lp2580
g2517
ag30
(g18
S' \xdd{\xad/\xf1\xaa\xbf'
p2581
tp2582
Rp2583
ag30
(g18
S'4\xfeX?\xb1\xe6\xc3\xbf'
p2584
tp2585
Rp2586
asg132
F-0.00014393835879311645
sg133
I9
sbsba(iMCTS
Action
p2587
(dp2588
g28
I3
sg29
I0
sg34
g1036
sg35
g30
(g18
S'@z<G\xf4\x0c\xbd\xbf'
p2589
tp2590
Rp2591
sg39
g2591
sg40
I1
sg41
F-0.1134789155880549
sg42
F0.0
sg43
g30
(g18
S'@z<G\xf4\x0c\xbd\xbf'
p2592
tp2593
Rp2594
sg47
I0
sg51
g0
(g1
g2
Ntp2595
Rp2596
(dp2597
g6
g2587
sg7
g8
(g9
(I0
tp2598
g11
tp2599
Rp2600
(I1
(I2
tp2601
g18
I00
S'\x00\x00\x00\x00a\xc6\xe3\xbf\x00\x00\x00\x00\x88\x19\xb8?'
p2602
tp2603
bsg23
Nsg24
(lp2604
(iMCTS
Action
p2605
(dp2606
g28
I0
sg29
I0
sg34
g2596
sg35
g8
(g9
(I0
tp2607
g11
tp2608
Rp2609
(I1
(I1
I1
tp2610
g70
I00
S'0\xd0J\xbd'
p2611
tp2612
bsg40
I0
sg41
g2609
sg43
I0
sg47
F1.0
sba(iMCTS
Action
p2613
(dp2614
g28
I1
sg29
I0
sg34
g2596
sg35
g2609
sg40
I0
sg41
g2609
sg43
I0
sg47
F1.0
sba(iMCTS
Action
p2615
(dp2616
g28
I2
sg29
I0
sg34
g2596
sg35
g2609
sg40
I0
sg41
g2609
sg43
I0
sg47
F1.0
sba(iMCTS
Action
p2617
(dp2618
g28
I3
sg29
I0
sg34
g2596
sg35
g2609
sg40
I0
sg41
g2609
sg43
I0
sg47
F1.0
sba(iMCTS
Action
p2619
(dp2620
g28
I4
sg29
I0
sg34
g2596
sg35
g2609
sg40
I0
sg41
g2609
sg43
I0
sg47
F1.0
sba(iMCTS
Action
p2621
(dp2622
g28
I5
sg29
I0
sg34
g2596
sg35
g2609
sg40
I0
sg41
g2609
sg43
I0
sg47
F1.0
sba(iMCTS
Action
p2623
(dp2624
g28
I6
sg29
I0
sg34
g2596
sg35
g2609
sg40
I0
sg41
g2609
sg43
I0
sg47
F1.0
sba(iMCTS
Action
p2625
(dp2626
g28
I7
sg29
I0
sg34
g2596
sg35
g2609
sg40
I0
sg41
g2609
sg43
I0
sg47
F1.0
sba(iMCTS
Action
p2627
(dp2628
g28
I8
sg29
I0
sg34
g2596
sg35
g2609
sg40
I0
sg41
g2609
sg43
I0
sg47
F1.0
sbasg121
g8
(g9
(I0
tp2629
g11
tp2630
Rp2631
(I1
(I9
tp2632
g70
I00
S'\xc0\xbb5?MBH9?q\x93>&\x1b&8\x93I\x938\x1c\xbf\x0b8\x03e\xaa:\x89Z\x9a8\xa0\xad\xdd9'
p2633
tp2634
bsg128
g2609
sg40
I0
sg129
I00
sg130
(lp2635
sg132
F-0.06396396626630807
sg133
I9
sbsba(iMCTS
Action
p2636
(dp2637
g28
I4
sg29
I0
sg34
g1036
sg35
g2375
sg40
I0
sg41
g2375
sg43
I0
sg47
F1.0
sba(iMCTS
Action
p2638
(dp2639
g28
I5
sg29
I0
sg34
g1036
sg35
g2375
sg40
I0
sg41
g2375
sg43
I0
sg47
F1.0
sba(iMCTS
Action
p2640
(dp2641
g28
I6
sg29
I0
sg34
g1036
sg35
g30
(g18
S'\x90\x02k(O \xc9\xbf'
p2642
tp2643
Rp2644
sg39
g2644
sg40
I1
sg41
F-0.19629849885497608
sg42
F0.0
sg43
g30
(g18
S'\x90\x02k(O \xc9\xbf'
p2645
tp2646
Rp2647
sg47
I0
sg51
g0
(g1
g2
Ntp2648
Rp2649
(dp2650
g6
g2640
sg7
g8
(g9
(I0
tp2651
g11
tp2652
Rp2653
(I1
(I2
tp2654
g18
I00
S'\x00\x00\x00\x00\xa0\x92\xe8\xbf\x00\x00\x00\x00 5\x9e\xbf'
p2655
tp2656
bsg23
Nsg24
(lp2657
(iMCTS
Action
p2658
(dp2659
g28
I0
sg29
I0
sg34
g2649
sg35
g8
(g9
(I0
tp2660
g11
tp2661
Rp2662
(I1
(I1
I1
tp2663
g70
I00
S'\x10\xe0\xc2\xbc'
p2664
tp2665
bsg40
I0
sg41
g2662
sg43
I0
sg47
F1.0
sba(iMCTS
Action
p2666
(dp2667
g28
I1
sg29
I0
sg34
g2649
sg35
g2662
sg40
I0
sg41
g2662
sg43
I0
sg47
F1.0
sba(iMCTS
Action
p2668
(dp2669
g28
I2
sg29
I0
sg34
g2649
sg35
g2662
sg40
I0
sg41
g2662
sg43
I0
sg47
F1.0
sba(iMCTS
Action
p2670
(dp2671
g28
I3
sg29
I0
sg34
g2649
sg35
g2662
sg40
I0
sg41
g2662
sg43
I0
sg47
F1.0
sba(iMCTS
Action
p2672
(dp2673
g28
I4
sg29
I0
sg34
g2649
sg35
g2662
sg40
I0
sg41
g2662
sg43
I0
sg47
F1.0
sba(iMCTS
Action
p2674
(dp2675
g28
I5
sg29
I0
sg34
g2649
sg35
g2662
sg40
I0
sg41
g2662
sg43
I0
sg47
F1.0
sba(iMCTS
Action
p2676
(dp2677
g28
I6
sg29
I0
sg34
g2649
sg35
g2662
sg40
I0
sg41
g2662
sg43
I0
sg47
F1.0
sba(iMCTS
Action
p2678
(dp2679
g28
I7
sg29
I0
sg34
g2649
sg35
g2662
sg40
I0
sg41
g2662
sg43
I0
sg47
F1.0
sba(iMCTS
Action
p2680
(dp2681
g28
I8
sg29
I0
sg34
g2649
sg35
g2662
sg40
I0
sg41
g2662
sg43
I0
sg47
F1.0
sbasg121
g8
(g9
(I0
tp2682
g11
tp2683
Rp2684
(I1
(I9
tp2685
g70
I00
S"\x08\x89z?\x1f\x00U:\xb1\xec\xa5<,\x0ec7\xd2\tL7+\x1c'7*\xcep9\xe6NT6j.<7"
p2686
tp2687
bsg128
g2662
sg40
I0
sg129
I00
sg130
(lp2688
sg132
F-0.1725100169042162
sg133
I9
sbsba(iMCTS
Action
p2689
(dp2690
g28
I7
sg29
I0
sg34
g1036
sg35
g2375
sg40
I0
sg41
g2375
sg43
I0
sg47
F1.0
sba(iMCTS
Action
p2691
(dp2692
g28
I8
sg29
I0
sg34
g1036
sg35
g2375
sg40
I0
sg41
g2375
sg43
I0
sg47
F1.0
sbasg121
g8
(g9
(I0
tp2693
g11
tp2694
Rp2695
(I1
(I9
tp2696
g70
I00
S'0\xdar?.k~7u\xd5;=\x10\x15\xae7\xb2J\x888\xbe\xae\xa07\xb1\x9a\x93;\xefK\xb78|\xabN:'
p2697
tp2698
bsg128
g2375
sg40
I29
sg129
I00
sg130
(lp2699
g2591
ag30
(g18
S'0\xf6gV\x8b\xe2\xae\xbf'
p2700
tp2701
Rp2702
ag30
(g18
S'\xe6.\x87\xf5\xfc\xb5\xd0\xbf'
p2703
tp2704
Rp2705
ag30
(g18
S'\x08q,\x17@b\xbd\xbf'
p2706
tp2707
Rp2708
ag30
(g18
S'\xb6\xa9A\xfcvO\xd3\xbf'
p2709
tp2710
Rp2711
ag30
(g18
S'(\x9e\xe9\xd3$\x05\xb2\xbf'
p2712
tp2713
Rp2714
ag30
(g18
S'\x80\x80\x8b\xc0c\x9f\xc0\xbf'
p2715
tp2716
Rp2717
ag30
(g18
S' Z\x16\xc5\x1e\xd4\xa2\xbf'
p2718
tp2719
Rp2720
ag30
(g18
S'\x0c\x1fY\x1c\xe0\x87\xc6\xbf'
p2721
tp2722
Rp2723
ag30
(g18
S'H\xa80\xb9W\xca\xcf\xbf'
p2724
tp2725
Rp2726
ag30
(g18
S'\xb8\xd3\xc2V\x90\xc3\xba\xbf'
p2727
tp2728
Rp2729
ag30
(g18
S'\xa8B<\x05\xea\x12\xc4\xbf'
p2730
tp2731
Rp2732
ag30
(g18
S'\xb8p\xf0d\x96\xf5\xcd\xbf'
p2733
tp2734
Rp2735
ag30
(g18
S'@\xa8\x8e|\x0c&\x93\xbf'
p2736
tp2737
Rp2738
ag30
(g18
S'`\xf3\x93\x85\x0f\x10\xaa\xbf'
p2739
tp2740
Rp2741
ag30
(g18
S'\x80\x82\xd7\xf6\x058\xcd\xbf'
p2742
tp2743
Rp2744
ag30
(g18
S'@7\x92r\r\x04\xab\xbf'
p2745
tp2746
Rp2747
ag30
(g18
S'\xa4\xdb\xc8U\xb7a\xc7\xbf'
p2748
tp2749
Rp2750
ag30
(g18
S'\xf8\x920\xc1\xf9W\xbf\xbf'
p2751
tp2752
Rp2753
ag30
(g18
S'\xbc\x94\x9e\xb0h\xeb\xc3\xbf'
p2754
tp2755
Rp2756
ag30
(g18
S'\xfa)u\xdbG\xa1\xd1\xbf'
p2757
tp2758
Rp2759
ag30
(g18
S'\xf4\xb3\xbf5\x152\xcc\xbf'
p2760
tp2761
Rp2762
ag30
(g18
S'\xc0\x1e\xbc\x1d\x82\xbb\xb9\xbf'
p2763
tp2764
Rp2765
ag30
(g18
S'Nc\xbbB0=\xd3\xbf'
p2766
tp2767
Rp2768
ag2644
ag30
(g18
S'\xf8\xb4\xf4A\x1d4\xbd\xbf'
p2769
tp2770
Rp2771
ag30
(g18
S'`\x92\xc1\xd0\x14\x03\xb6\xbf'
p2772
tp2773
Rp2774
ag30
(g18
S'\xe89\xff\xd2\x8bQ\xca\xbf'
p2775
tp2776
Rp2777
ag30
(g18
S'.\xfb\xd1\xf9Y\x88\xd4\xbf'
p2778
tp2779
Rp2780
asg132
F1.9374260050053493e-05
sg133
I9
sbsba(iMCTS
Action
p2781
(dp2782
g28
I1
sg29
g30
(g18
S'\xda\x88ZC\xab-A?'
p2783
tp2784
Rp2785
sg34
g1012
sg35
g30
(g18
S'\xc0\x83\x81YK\xac\xa3\xbf'
p2786
tp2787
Rp2788
sg39
g2788
sg40
I2
sg41
F-0.03842387645341416
sg42
g2785
sg43
g30
(g18
S'\xc0\x83\x81YK\xac\xb3\xbf'
p2789
tp2790
Rp2791
sg47
g30
(g18
S'\xda\x88ZC\xab-A?'
p2792
tp2793
Rp2794
sg51
g0
(g1
g2
Ntp2795
Rp2796
(dp2797
g6
g2781
sg7
g8
(g9
(I0
tp2798
g11
tp2799
Rp2800
(I1
(I2
tp2801
g18
I00
S'\x00\x00\x00\x00Ry\xe0\xbf\x00\x00\x00\x008g\xa7\xbf'
p2802
tp2803
bsg23
Nsg24
(lp2804
(iMCTS
Action
p2805
(dp2806
g28
I0
sg29
I0
sg34
g2796
sg35
g8
(g9
(I0
tp2807
g11
tp2808
Rp2809
(I1
(I1
I1
tp2810
g70
I00
S'\x90^\xb6\xbc'
p2811
tp2812
bsg40
I0
sg41
g2809
sg43
I0
sg47
F1.0
sba(iMCTS
Action
p2813
(dp2814
g28
I1
sg29
I0
sg34
g2796
sg35
g2809
sg40
I0
sg41
g2809
sg43
I0
sg47
F1.0
sba(iMCTS
Action
p2815
(dp2816
g28
I2
sg29
I0
sg34
g2796
sg35
g2809
sg40
I0
sg41
g2809
sg43
I0
sg47
F1.0
sba(iMCTS
Action
p2817
(dp2818
g28
I3
sg29
I0
sg34
g2796
sg35
g2809
sg40
I0
sg41
g2809
sg43
I0
sg47
F1.0
sba(iMCTS
Action
p2819
(dp2820
g28
I4
sg29
I0
sg34
g2796
sg35
g2809
sg40
I0
sg41
g2809
sg43
I0
sg47
F1.0
sba(iMCTS
Action
p2821
(dp2822
g28
I5
sg29
I0
sg34
g2796
sg35
g30
(g18
S'\xe0\xd1J\xb2\x10\xfa\xab\xbf'
p2823
tp2824
Rp2825
sg39
g2825
sg40
I1
sg41
F-0.054642221225922105
sg42
F0.0
sg43
g30
(g18
S'\xe0\xd1J\xb2\x10\xfa\xab\xbf'
p2826
tp2827
Rp2828
sg47
I0
sg51
g0
(g1
g2
Ntp2829
Rp2830
(dp2831
g6
g2821
sg7
g8
(g9
(I0
tp2832
g11
tp2833
Rp2834
(I1
(I2
tp2835
g18
I00
S'\x00\x00\x00\x004\x94\xe2\xbf\x00\x00\x00\x00\xe0M\xb0\xbf'
p2836
tp2837
bsg23
Nsg24
(lp2838
(iMCTS
Action
p2839
(dp2840
g28
I0
sg29
I0
sg34
g2830
sg35
g8
(g9
(I0
tp2841
g11
tp2842
Rp2843
(I1
(I1
I1
tp2844
g70
I00
S'\xc0\x8e\x7f\xbc'
p2845
tp2846
bsg40
I0
sg41
g2843
sg43
I0
sg47
F1.0
sba(iMCTS
Action
p2847
(dp2848
g28
I1
sg29
I0
sg34
g2830
sg35
g2843
sg40
I0
sg41
g2843
sg43
I0
sg47
F1.0
sba(iMCTS
Action
p2849
(dp2850
g28
I2
sg29
I0
sg34
g2830
sg35
g2843
sg40
I0
sg41
g2843
sg43
I0
sg47
F1.0
sba(iMCTS
Action
p2851
(dp2852
g28
I3
sg29
I0
sg34
g2830
sg35
g2843
sg40
I0
sg41
g2843
sg43
I0
sg47
F1.0
sba(iMCTS
Action
p2853
(dp2854
g28
I4
sg29
I0
sg34
g2830
sg35
g2843
sg40
I0
sg41
g2843
sg43
I0
sg47
F1.0
sba(iMCTS
Action
p2855
(dp2856
g28
I5
sg29
I0
sg34
g2830
sg35
g2843
sg40
I0
sg41
g2843
sg43
I0
sg47
F1.0
sba(iMCTS
Action
p2857
(dp2858
g28
I6
sg29
I0
sg34
g2830
sg35
g2843
sg40
I0
sg41
g2843
sg43
I0
sg47
F1.0
sba(iMCTS
Action
p2859
(dp2860
g28
I7
sg29
I0
sg34
g2830
sg35
g2843
sg40
I0
sg41
g2843
sg43
I0
sg47
F1.0
sba(iMCTS
Action
p2861
(dp2862
g28
I8
sg29
I0
sg34
g2830
sg35
g2843
sg40
I0
sg41
g2843
sg43
I0
sg47
F1.0
sbasg121
g8
(g9
(I0
tp2863
g11
tp2864
Rp2865
(I1
(I9
tp2866
g70
I00
S'\xe8\xf0~?\x8bD47\xf3\x15);\xc2L\xae6\xc4\x1aS7\xb8]\x986\x8c\xdf\xbf:\x1b#\xf36\x9f\xe6Z8'
p2867
tp2868
bsg128
g2843
sg40
I0
sg129
I00
sg130
(lp2869
sg132
F-0.03904422213000536
sg133
I9
sbsba(iMCTS
Action
p2870
(dp2871
g28
I6
sg29
I0
sg34
g2796
sg35
g2809
sg40
I0
sg41
g2809
sg43
I0
sg47
F1.0
sba(iMCTS
Action
p2872
(dp2873
g28
I7
sg29
I0
sg34
g2796
sg35
g2809
sg40
I0
sg41
g2809
sg43
I0
sg47
F1.0
sba(iMCTS
Action
p2874
(dp2875
g28
I8
sg29
I0
sg34
g2796
sg35
g2809
sg40
I0
sg41
g2809
sg43
I0
sg47
F1.0
sbasg121
g8
(g9
(I0
tp2876
g11
tp2877
Rp2878
(I1
(I9
tp2879
g70
I00
S'cB~?x8\x886GZO;z\x7f\xcb6D\x96\xaa7\xab\x1a\xbc6\x8c\xde_;\xf2l\x907\xb5u.9'
p2880
tp2881
bsg128
g2809
sg40
I1
sg129
I00
sg130
(lp2882
g2825
asg132
F2.817805393318107e-05
sg133
I9
sbsba(iMCTS
Action
p2883
(dp2884
g28
I2
sg29
g30
(g18
S'\xc8\xb4\xa0\r\x8d\xbd\x16?'
p2885
tp2886
Rp2887
sg34
g1012
sg35
g30
(g18
S'(p\xe4C\xd4Z\x99\xbf'
p2888
tp2889
Rp2890
sg39
g2890
sg40
I4
sg41
F-0.02476054825193344
sg42
g2887
sg43
g30
(g18
S'(p\xe4C\xd4Z\xb9\xbf'
p2891
tp2892
Rp2893
sg47
g30
(g18
S'\x0b\xf1\x80g\x11R\xfe>'
p2894
tp2895
Rp2896
sg51
g0
(g1
g2
Ntp2897
Rp2898
(dp2899
g6
g2883
sg7
g8
(g9
(I0
tp2900
g11
tp2901
Rp2902
(I1
(I2
tp2903
g18
I00
S'\x00\x00\x00\x00\x0e\x98\xe0\xbf\x00\x00\x00\x00\xcb\x8a\xc1\xbf'
p2904
tp2905
bsg23
Nsg24
(lp2906
(iMCTS
Action
p2907
(dp2908
g28
I0
sg29
g30
(g18
S'\x1f\x95[\xe3\xcb\x0b\xd7>'
p2909
tp2910
Rp2911
sg34
g2898
sg35
g30
(g18
S'\xd0\xe3\xef\x9d\x1c\xf6\x92\xbf'
p2912
tp2913
Rp2914
sg39
g2914
sg40
I2
sg41
F-0.018516966953004588
sg42
g2911
sg43
g30
(g18
S'\xd0\xe3\xef\x9d\x1c\xf6\xa2\xbf'
p2915
tp2916
Rp2917
sg47
g30
(g18
S'\x1f\x95[\xe3\xcb\x0b\xd7>'
p2918
tp2919
Rp2920
sg51
g0
(g1
g2
Ntp2921
Rp2922
(dp2923
g6
g2907
sg7
g8
(g9
(I0
tp2924
g11
tp2925
Rp2926
(I1
(I2
tp2927
g18
I00
S'\x00\x00\x00\x00k\x9f\xe0\xbf\x00\x00\x00\x00\x9c\xe8\xb9\xbf'
p2928
tp2929
bsg23
Nsg24
(lp2930
(iMCTS
Action
p2931
(dp2932
g28
I0
sg29
I0
sg34
g2922
sg35
g8
(g9
(I0
tp2933
g11
tp2934
Rp2935
(I1
(I1
I1
tp2936
g70
I00
S'@\x14W\xbc'
p2937
tp2938
bsg40
I0
sg41
g2935
sg43
I0
sg47
F1.0
sba(iMCTS
Action
p2939
(dp2940
g28
I1
sg29
I0
sg34
g2922
sg35
g30
(g18
S'\xe0\xb4\x16\xe8E\xd6\x90\xbf'
p2941
tp2942
Rp2943
sg39
g2943
sg40
I1
sg41
F-0.016442386904306328
sg42
F0.0
sg43
g30
(g18
S'\xe0\xb4\x16\xe8E\xd6\x90\xbf'
p2944
tp2945
Rp2946
sg47
I0
sg51
g0
(g1
g2
Ntp2947
Rp2948
(dp2949
g6
g2939
sg7
g8
(g9
(I0
tp2950
g11
tp2951
Rp2952
(I1
(I2
tp2953
g18
I00
S'\x00\x00\x00\x003\xa0\xe0\xbf\x00\x00\x00\x00\xc8e\xba\xbf'
p2954
tp2955
bsg23
Nsg24
(lp2956
(iMCTS
Action
p2957
(dp2958
g28
I0
sg29
I0
sg34
g2948
sg35
g8
(g9
(I0
tp2959
g11
tp2960
Rp2961
(I1
(I1
I1
tp2962
g70
I00
S'\x00}R\xbc'
p2963
tp2964
bsg40
I0
sg41
g2961
sg43
I0
sg47
F1.0
sba(iMCTS
Action
p2965
(dp2966
g28
I1
sg29
I0
sg34
g2948
sg35
g2961
sg40
I0
sg41
g2961
sg43
I0
sg47
F1.0
sba(iMCTS
Action
p2967
(dp2968
g28
I2
sg29
I0
sg34
g2948
sg35
g2961
sg40
I0
sg41
g2961
sg43
I0
sg47
F1.0
sba(iMCTS
Action
p2969
(dp2970
g28
I3
sg29
I0
sg34
g2948
sg35
g2961
sg40
I0
sg41
g2961
sg43
I0
sg47
F1.0
sba(iMCTS
Action
p2971
(dp2972
g28
I4
sg29
I0
sg34
g2948
sg35
g2961
sg40
I0
sg41
g2961
sg43
I0
sg47
F1.0
sba(iMCTS
Action
p2973
(dp2974
g28
I5
sg29
I0
sg34
g2948
sg35
g2961
sg40
I0
sg41
g2961
sg43
I0
sg47
F1.0
sba(iMCTS
Action
p2975
(dp2976
g28
I6
sg29
I0
sg34
g2948
sg35
g2961
sg40
I0
sg41
g2961
sg43
I0
sg47
F1.0
sba(iMCTS
Action
p2977
(dp2978
g28
I7
sg29
I0
sg34
g2948
sg35
g2961
sg40
I0
sg41
g2961
sg43
I0
sg47
F1.0
sba(iMCTS
Action
p2979
(dp2980
g28
I8
sg29
I0
sg34
g2948
sg35
g2961
sg40
I0
sg41
g2961
sg43
I0
sg47
F1.0
sbasg121
g8
(g9
(I0
tp2981
g11
tp2982
Rp2983
(I1
(I9
tp2984
g70
I00
S"f'\x7f?\xd5I\xf65/g\x14:\xe1\x1e86\xda-\x1e7S\x95)6\x94<.;=d\xc46L\x1as8"
p2985
tp2986
bsg128
g2961
sg40
I0
sg129
I00
sg130
(lp2987
sg132
F-0.0035952017694186322
sg133
I9
sbsba(iMCTS
Action
p2988
(dp2989
g28
I2
sg29
I0
sg34
g2922
sg35
g2935
sg40
I0
sg41
g2935
sg43
I0
sg47
F1.0
sba(iMCTS
Action
p2990
(dp2991
g28
I3
sg29
I0
sg34
g2922
sg35
g2935
sg40
I0
sg41
g2935
sg43
I0
sg47
F1.0
sba(iMCTS
Action
p2992
(dp2993
g28
I4
sg29
I0
sg34
g2922
sg35
g2935
sg40
I0
sg41
g2935
sg43
I0
sg47
F1.0
sba(iMCTS
Action
p2994
(dp2995
g28
I5
sg29
I0
sg34
g2922
sg35
g2935
sg40
I0
sg41
g2935
sg43
I0
sg47
F1.0
sba(iMCTS
Action
p2996
(dp2997
g28
I6
sg29
I0
sg34
g2922
sg35
g2935
sg40
I0
sg41
g2935
sg43
I0
sg47
F1.0
sba(iMCTS
Action
p2998
(dp2999
g28
I7
sg29
I0
sg34
g2922
sg35
g2935
sg40
I0
sg41
g2935
sg43
I0
sg47
F1.0
sba(iMCTS
Action
p3000
(dp3001
g28
I8
sg29
I0
sg34
g2922
sg35
g2935
sg40
I0
sg41
g2935
sg43
I0
sg47
F1.0
sbasg121
g8
(g9
(I0
tp3002
g11
tp3003
Rp3004
(I1
(I9
tp3005
g70
I00
S'\xc6#\x7f?\x986\xfd5\r\x1a\x1d:>\xf7<6\x02$"7/\x0e.6\xa4\x85/;(M\xcb6%a{8'
p3006
tp3007
bsg128
g2935
sg40
I1
sg129
I00
sg130
(lp3008
g2943
asg132
F-0.0037320802158630206
sg133
I9
sbsba(iMCTS
Action
p3009
(dp3010
g28
I1
sg29
I0
sg34
g2898
sg35
g8
(g9
(I0
tp3011
g11
tp3012
Rp3013
(I1
(I1
I1
tp3014
g70
I00
S'@\xe7;\xbc'
p3015
tp3016
bsg40
I0
sg41
g3013
sg43
I0
sg47
F1.0
sba(iMCTS
Action
p3017
(dp3018
g28
I2
sg29
I0
sg34
g2898
sg35
g30
(g18
S'\x80\xe4n\x01Q\xc2\x98\xbf'
p3019
tp3020
Rp3021
sg39
g3021
sg40
I1
sg41
F-0.024178758347009666
sg42
F0.0
sg43
g30
(g18
S'\x80\xe4n\x01Q\xc2\x98\xbf'
p3022
tp3023
Rp3024
sg47
I0
sg51
g0
(g1
g2
Ntp3025
Rp3026
(dp3027
g6
g3017
sg7
g8
(g9
(I0
tp3028
g11
tp3029
Rp3030
(I1
(I2
tp3031
g18
I00
S'\x00\x00\x00\x00\xe2\xa0\xe0\xbf\x00\x00\x00\x001t\xc4\xbf'
p3032
tp3033
bsg23
Nsg24
(lp3034
(iMCTS
Action
p3035
(dp3036
g28
I0
sg29
I0
sg34
g3026
sg35
g8
(g9
(I0
tp3037
g11
tp3038
Rp3039
(I1
(I1
I1
tp3040
g70
I00
S'\xa0Yl\xbc'
p3041
tp3042
bsg40
I0
sg41
g3039
sg43
I0
sg47
F1.0
sba(iMCTS
Action
p3043
(dp3044
g28
I1
sg29
I0
sg34
g3026
sg35
g3039
sg40
I0
sg41
g3039
sg43
I0
sg47
F1.0
sba(iMCTS
Action
p3045
(dp3046
g28
I2
sg29
I0
sg34
g3026
sg35
g3039
sg40
I0
sg41
g3039
sg43
I0
sg47
F1.0
sba(iMCTS
Action
p3047
(dp3048
g28
I3
sg29
I0
sg34
g3026
sg35
g3039
sg40
I0
sg41
g3039
sg43
I0
sg47
F1.0
sba(iMCTS
Action
p3049
(dp3050
g28
I4
sg29
I0
sg34
g3026
sg35
g3039
sg40
I0
sg41
g3039
sg43
I0
sg47
F1.0
sba(iMCTS
Action
p3051
(dp3052
g28
I5
sg29
I0
sg34
g3026
sg35
g3039
sg40
I0
sg41
g3039
sg43
I0
sg47
F1.0
sba(iMCTS
Action
p3053
(dp3054
g28
I6
sg29
I0
sg34
g3026
sg35
g3039
sg40
I0
sg41
g3039
sg43
I0
sg47
F1.0
sba(iMCTS
Action
p3055
(dp3056
g28
I7
sg29
I0
sg34
g3026
sg35
g3039
sg40
I0
sg41
g3039
sg43
I0
sg47
F1.0
sba(iMCTS
Action
p3057
(dp3058
g28
I8
sg29
I0
sg34
g3026
sg35
g3039
sg40
I0
sg41
g3039
sg43
I0
sg47
F1.0
sbasg121
g8
(g9
(I0
tp3059
g11
tp3060
Rp3061
(I1
(I9
tp3062
g70
I00
S'\xaca\x7f?V\xf2P5\xacw\xef84\xce\xb35\xf5\xc2\xa26&\xbc\xa55]\x90\x14;`h\x176\xc4\xad\xcc7'
p3063
tp3064
bsg128
g3039
sg40
I0
sg129
I00
sg130
(lp3065
sg132
F-0.009753093206857688
sg133
I9
sbsba(iMCTS
Action
p3066
(dp3067
g28
I3
sg29
I0
sg34
g2898
sg35
g3013
sg40
I0
sg41
g3013
sg43
I0
sg47
F1.0
sba(iMCTS
Action
p3068
(dp3069
g28
I4
sg29
I0
sg34
g2898
sg35
g3013
sg40
I0
sg41
g3013
sg43
I0
sg47
F1.0
sba(iMCTS
Action
p3070
(dp3071
g28
I5
sg29
I0
sg34
g2898
sg35
g3013
sg40
I0
sg41
g3013
sg43
I0
sg47
F1.0
sba(iMCTS
Action
p3072
(dp3073
g28
I6
sg29
I0
sg34
g2898
sg35
g3013
sg40
I0
sg41
g3013
sg43
I0
sg47
F1.0
sba(iMCTS
Action
p3074
(dp3075
g28
I7
sg29
I0
sg34
g2898
sg35
g3013
sg40
I0
sg41
g3013
sg43
I0
sg47
F1.0
sba(iMCTS
Action
p3076
(dp3077
g28
I8
sg29
I0
sg34
g2898
sg35
g3013
sg40
I0
sg41
g3013
sg43
I0
sg47
F1.0
sbasg121
g8
(g9
(I0
tp3078
g11
tp3079
Rp3080
(I1
(I9
tp3081
g70
I00
S'\x9aO\x7f?\xfe\x17\x905~_\\9J\x01\xec5\xaeF\xd26\xcf\x9a\xd95\xdau\x1f;\xcf\xd9\\6Nt\x0f8'
p3082
tp3083
bsg128
g3013
sg40
I3
sg129
I00
sg130
(lp3084
g3021
ag30
(g18
S'`\x89\xe4\xa9\x9bC\x91\xbf'
p3085
tp3086
Rp3087
ag30
(g18
S'@>\xfb\x91\x9d\xa8\x94\xbf'
p3088
tp3089
Rp3090
asg132
F-0.00659019805988692
sg133
I9
sbsba(iMCTS
Action
p3091
(dp3092
g28
I3
sg29
I0
sg34
g1012
sg35
g30
(g18
S'HG\xcau\x80s\xb3\xbf'
p3093
tp3094
Rp3095
sg39
g3095
sg40
I1
sg41
F-0.07598116756187523
sg42
F0.0
sg43
g30
(g18
S'HG\xcau\x80s\xb3\xbf'
p3096
tp3097
Rp3098
sg47
I0
sg51
g0
(g1
g2
Ntp3099
Rp3100
(dp3101
g6
g3091
sg7
g8
(g9
(I0
tp3102
g11
tp3103
Rp3104
(I1
(I2
tp3105
g18
I00
S'\x00\x00\x00\x00\xe8\xf3\xe2\xbf\x00\x00\x00\x00@\xc3\x84?'
p3106
tp3107
bsg23
Nsg24
(lp3108
(iMCTS
Action
p3109
(dp3110
g28
I0
sg29
I0
sg34
g3100
sg35
g8
(g9
(I0
tp3111
g11
tp3112
Rp3113
(I1
(I1
I1
tp3114
g70
I00
S'\xe0|\xf3\xbc'
p3115
tp3116
bsg40
I0
sg41
g3113
sg43
I0
sg47
F1.0
sba(iMCTS
Action
p3117
(dp3118
g28
I1
sg29
I0
sg34
g3100
sg35
g3113
sg40
I0
sg41
g3113
sg43
I0
sg47
F1.0
sba(iMCTS
Action
p3119
(dp3120
g28
I2
sg29
I0
sg34
g3100
sg35
g3113
sg40
I0
sg41
g3113
sg43
I0
sg47
F1.0
sba(iMCTS
Action
p3121
(dp3122
g28
I3
sg29
I0
sg34
g3100
sg35
g3113
sg40
I0
sg41
g3113
sg43
I0
sg47
F1.0
sba(iMCTS
Action
p3123
(dp3124
g28
I4
sg29
I0
sg34
g3100
sg35
g3113
sg40
I0
sg41
g3113
sg43
I0
sg47
F1.0
sba(iMCTS
Action
p3125
(dp3126
g28
I5
sg29
I0
sg34
g3100
sg35
g3113
sg40
I0
sg41
g3113
sg43
I0
sg47
F1.0
sba(iMCTS
Action
p3127
(dp3128
g28
I6
sg29
I0
sg34
g3100
sg35
g3113
sg40
I0
sg41
g3113
sg43
I0
sg47
F1.0
sba(iMCTS
Action
p3129
(dp3130
g28
I7
sg29
I0
sg34
g3100
sg35
g3113
sg40
I0
sg41
g3113
sg43
I0
sg47
F1.0
sba(iMCTS
Action
p3131
(dp3132
g28
I8
sg29
I0
sg34
g3100
sg35
g3113
sg40
I0
sg41
g3113
sg43
I0
sg47
F1.0
sbasg121
g8
(g9
(I0
tp3133
g11
tp3134
Rp3135
(I1
(I9
tp3136
g70
I00
S'<\xc2x?\xf4\x94/8?\x9e\xd7<\xff\xa0|7\xca\x03\x088\x05_Z7\xf2\xeb\xda:t\x02\xd67\xf0\x95/9'
p3137
tp3138
bsg128
g3113
sg40
I0
sg129
I00
sg130
(lp3139
sg132
F-0.046258536584244614
sg133
I9
sbsba(iMCTS
Action
p3140
(dp3141
g28
I4
sg29
I0
sg34
g1012
sg35
g30
(g18
S'\x00\xb0>\xfaTj\xb0\xbf'
p3142
tp3143
Rp3144
sg39
g3144
sg40
I1
sg41
F-0.064122496695461
sg42
F0.0
sg43
g30
(g18
S'\x00\xb0>\xfaTj\xb0\xbf'
p3145
tp3146
Rp3147
sg47
I0
sg51
g0
(g1
g2
Ntp3148
Rp3149
(dp3150
g6
g3140
sg7
g8
(g9
(I0
tp3151
g11
tp3152
Rp3153
(I1
(I2
tp3154
g18
I00
S'\x00\x00\x00\x00\xf2\xf6\xe2\xbf\x00\x00\x00\x00\x98\x11\xaa\xbf'
p3155
tp3156
bsg23
Nsg24
(lp3157
(iMCTS
Action
p3158
(dp3159
g28
I0
sg29
I0
sg34
g3149
sg35
g8
(g9
(I0
tp3160
g11
tp3161
Rp3162
(I1
(I1
I1
tp3163
g70
I00
S'\xc0y\x8f\xbc'
p3164
tp3165
bsg40
I0
sg41
g3162
sg43
I0
sg47
F1.0
sba(iMCTS
Action
p3166
(dp3167
g28
I1
sg29
I0
sg34
g3149
sg35
g3162
sg40
I0
sg41
g3162
sg43
I0
sg47
F1.0
sba(iMCTS
Action
p3168
(dp3169
g28
I2
sg29
I0
sg34
g3149
sg35
g3162
sg40
I0
sg41
g3162
sg43
I0
sg47
F1.0
sba(iMCTS
Action
p3170
(dp3171
g28
I3
sg29
I0
sg34
g3149
sg35
g3162
sg40
I0
sg41
g3162
sg43
I0
sg47
F1.0
sba(iMCTS
Action
p3172
(dp3173
g28
I4
sg29
I0
sg34
g3149
sg35
g3162
sg40
I0
sg41
g3162
sg43
I0
sg47
F1.0
sba(iMCTS
Action
p3174
(dp3175
g28
I5
sg29
I0
sg34
g3149
sg35
g3162
sg40
I0
sg41
g3162
sg43
I0
sg47
F1.0
sba(iMCTS
Action
p3176
(dp3177
g28
I6
sg29
I0
sg34
g3149
sg35
g3162
sg40
I0
sg41
g3162
sg43
I0
sg47
F1.0
sba(iMCTS
Action
p3178
(dp3179
g28
I7
sg29
I0
sg34
g3149
sg35
g3162
sg40
I0
sg41
g3162
sg43
I0
sg47
F1.0
sba(iMCTS
Action
p3180
(dp3181
g28
I8
sg29
I0
sg34
g3149
sg35
g3162
sg40
I0
sg41
g3162
sg43
I0
sg47
F1.0
sbasg121
g8
(g9
(I0
tp3182
g11
tp3183
Rp3184
(I1
(I9
tp3185
g70
I00
S'I\x97~?V\x05\x8b7\xcd\x14\x85;\x9e6\xd56C\x1bp7\x18c\xb86\xac\x08\xaf:\xef\x1d\x0b7\x1f\xd0k8'
p3186
tp3187
bsg128
g3162
sg40
I0
sg129
I00
sg130
(lp3188
sg132
F-0.046608387083949765
sg133
I9
sbsba(iMCTS
Action
p3189
(dp3190
g28
I5
sg29
I0
sg34
g1012
sg35
g30
(g18
S'\x80\x07\x0f\x7f\xef\xff\xaa\xbf'
p3191
tp3192
Rp3193
sg39
g3193
sg40
I1
sg41
F-0.052733883152099814
sg42
F0.0
sg43
g30
(g18
S'\x80\x07\x0f\x7f\xef\xff\xaa\xbf'
p3194
tp3195
Rp3196
sg47
I0
sg51
g0
(g1
g2
Ntp3197
Rp3198
(dp3199
g6
g3189
sg7
g8
(g9
(I0
tp3200
g11
tp3201
Rp3202
(I1
(I2
tp3203
g18
I00
S'\x00\x00\x00\x00\xcb\xc3\xe2\xbf\x00\x00\x00\x00\xec\x85\xb9\xbf'
p3204
tp3205
bsg23
Nsg24
(lp3206
(iMCTS
Action
p3207
(dp3208
g28
I0
sg29
I0
sg34
g3198
sg35
g8
(g9
(I0
tp3209
g11
tp3210
Rp3211
(I1
(I1
I1
tp3212
g70
I00
S'\xe0M\x18\xbc'
p3213
tp3214
bsg40
I0
sg41
g3211
sg43
I0
sg47
F1.0
sba(iMCTS
Action
p3215
(dp3216
g28
I1
sg29
I0
sg34
g3198
sg35
g3211
sg40
I0
sg41
g3211
sg43
I0
sg47
F1.0
sba(iMCTS
Action
p3217
(dp3218
g28
I2
sg29
I0
sg34
g3198
sg35
g3211
sg40
I0
sg41
g3211
sg43
I0
sg47
F1.0
sba(iMCTS
Action
p3219
(dp3220
g28
I3
sg29
I0
sg34
g3198
sg35
g3211
sg40
I0
sg41
g3211
sg43
I0
sg47
F1.0
sba(iMCTS
Action
p3221
(dp3222
g28
I4
sg29
I0
sg34
g3198
sg35
g3211
sg40
I0
sg41
g3211
sg43
I0
sg47
F1.0
sba(iMCTS
Action
p3223
(dp3224
g28
I5
sg29
I0
sg34
g3198
sg35
g3211
sg40
I0
sg41
g3211
sg43
I0
sg47
F1.0
sba(iMCTS
Action
p3225
(dp3226
g28
I6
sg29
I0
sg34
g3198
sg35
g3211
sg40
I0
sg41
g3211
sg43
I0
sg47
F1.0
sba(iMCTS
Action
p3227
(dp3228
g28
I7
sg29
I0
sg34
g3198
sg35
g3211
sg40
I0
sg41
g3211
sg43
I0
sg47
F1.0
sba(iMCTS
Action
p3229
(dp3230
g28
I8
sg29
I0
sg34
g3198
sg35
g3211
sg40
I0
sg41
g3211
sg43
I0
sg47
F1.0
sbasg121
g8
(g9
(I0
tp3231
g11
tp3232
Rp3233
(I1
(I9
tp3234
g70
I00
S'\x10s\x7f?\x19\xdd\xe46M(k:\x8a\x0bV6\xbc\xd2\x017=f:6\xc0\xb5\x9d:\x02-u6\x83\xa3\xdb7'
p3235
tp3236
bsg128
g3211
sg40
I0
sg129
I00
sg130
(lp3237
sg132
F-0.04343797255525228
sg133
I9
sbsba(iMCTS
Action
p3238
(dp3239
g28
I6
sg29
I0
sg34
g1012
sg35
g30
(g18
S'\x00\xe9-G\x196\xbd\xbf'
p3240
tp3241
Rp3242
sg39
g3242
sg40
I1
sg41
F-0.11410673129822513
sg42
F0.0
sg43
g30
(g18
S'\x00\xe9-G\x196\xbd\xbf'
p3243
tp3244
Rp3245
sg47
I0
sg51
g0
(g1
g2
Ntp3246
Rp3247
(dp3248
g6
g3238
sg7
g8
(g9
(I0
tp3249
g11
tp3250
Rp3251
(I1
(I2
tp3252
g18
I00
S'\x00\x00\x00\x00\xe2-\xe5\xbf\x00\x00\x00\x00 ,\x9e\xbf'
p3253
tp3254
bsg23
Nsg24
(lp3255
(iMCTS
Action
p3256
(dp3257
g28
I0
sg29
I0
sg34
g3247
sg35
g8
(g9
(I0
tp3258
g11
tp3259
Rp3260
(I1
(I1
I1
tp3261
g70
I00
S'p\xa2\xaa\xbc'
p3262
tp3263
bsg40
I0
sg41
g3260
sg43
I0
sg47
F1.0
sba(iMCTS
Action
p3264
(dp3265
g28
I1
sg29
I0
sg34
g3247
sg35
g3260
sg40
I0
sg41
g3260
sg43
I0
sg47
F1.0
sba(iMCTS
Action
p3266
(dp3267
g28
I2
sg29
I0
sg34
g3247
sg35
g3260
sg40
I0
sg41
g3260
sg43
I0
sg47
F1.0
sba(iMCTS
Action
p3268
(dp3269
g28
I3
sg29
I0
sg34
g3247
sg35
g3260
sg40
I0
sg41
g3260
sg43
I0
sg47
F1.0
sba(iMCTS
Action
p3270
(dp3271
g28
I4
sg29
I0
sg34
g3247
sg35
g3260
sg40
I0
sg41
g3260
sg43
I0
sg47
F1.0
sba(iMCTS
Action
p3272
(dp3273
g28
I5
sg29
I0
sg34
g3247
sg35
g3260
sg40
I0
sg41
g3260
sg43
I0
sg47
F1.0
sba(iMCTS
Action
p3274
(dp3275
g28
I6
sg29
I0
sg34
g3247
sg35
g3260
sg40
I0
sg41
g3260
sg43
I0
sg47
F1.0
sba(iMCTS
Action
p3276
(dp3277
g28
I7
sg29
I0
sg34
g3247
sg35
g3260
sg40
I0
sg41
g3260
sg43
I0
sg47
F1.0
sba(iMCTS
Action
p3278
(dp3279
g28
I8
sg29
I0
sg34
g3247
sg35
g3260
sg40
I0
sg41
g3260
sg43
I0
sg47
F1.0
sbasg121
g8
(g9
(I0
tp3280
g11
tp3281
Rp3282
(I1
(I9
tp3283
g70
I00
S"1\xe3|?a\xce\xbf8\x13f9<\xb9\x80'7\xd5\xca\x817e\x12\x087#\xd40:hT\xed6\xb4\xb5\x168"
p3284
tp3285
bsg128
g3260
sg40
I0
sg129
I00
sg130
(lp3286
sg132
F-0.09327732193733951
sg133
I9
sbsba(iMCTS
Action
p3287
(dp3288
g28
I7
sg29
I0
sg34
g1012
sg35
g30
(g18
S'`_\x16\xba\x9d\xdc\xc0\xbf'
p3289
tp3290
Rp3291
sg39
g3291
sg40
I1
sg41
F-0.13173266969965436
sg42
F0.0
sg43
g30
(g18
S'`_\x16\xba\x9d\xdc\xc0\xbf'
p3292
tp3293
Rp3294
sg47
I0
sg51
g0
(g1
g2
Ntp3295
Rp3296
(dp3297
g6
g3287
sg7
g8
(g9
(I0
tp3298
g11
tp3299
Rp3300
(I1
(I2
tp3301
g18
I00
S'\x00\x00\x00\x00\x1b\xc1\xe5\xbf\x00\x00\x00\x00\xe0\x18\x80\xbf'
p3302
tp3303
bsg23
Nsg24
(lp3304
(iMCTS
Action
p3305
(dp3306
g28
I0
sg29
I0
sg34
g3296
sg35
g8
(g9
(I0
tp3307
g11
tp3308
Rp3309
(I1
(I1
I1
tp3310
g70
I00
S' \xe7\xd0\xbc'
p3311
tp3312
bsg40
I0
sg41
g3309
sg43
I0
sg47
F1.0
sba(iMCTS
Action
p3313
(dp3314
g28
I1
sg29
I0
sg34
g3296
sg35
g3309
sg40
I0
sg41
g3309
sg43
I0
sg47
F1.0
sba(iMCTS
Action
p3315
(dp3316
g28
I2
sg29
I0
sg34
g3296
sg35
g3309
sg40
I0
sg41
g3309
sg43
I0
sg47
F1.0
sba(iMCTS
Action
p3317
(dp3318
g28
I3
sg29
I0
sg34
g3296
sg35
g3309
sg40
I0
sg41
g3309
sg43
I0
sg47
F1.0
sba(iMCTS
Action
p3319
(dp3320
g28
I4
sg29
I0
sg34
g3296
sg35
g3309
sg40
I0
sg41
g3309
sg43
I0
sg47
F1.0
sba(iMCTS
Action
p3321
(dp3322
g28
I5
sg29
I0
sg34
g3296
sg35
g3309
sg40
I0
sg41
g3309
sg43
I0
sg47
F1.0
sba(iMCTS
Action
p3323
(dp3324
g28
I6
sg29
I0
sg34
g3296
sg35
g3309
sg40
I0
sg41
g3309
sg43
I0
sg47
F1.0
sba(iMCTS
Action
p3325
(dp3326
g28
I7
sg29
I0
sg34
g3296
sg35
g3309
sg40
I0
sg41
g3309
sg43
I0
sg47
F1.0
sba(iMCTS
Action
p3327
(dp3328
g28
I8
sg29
I0
sg34
g3296
sg35
g3309
sg40
I0
sg41
g3309
sg43
I0
sg47
F1.0
sbasg121
g8
(g9
(I0
tp3329
g11
tp3330
Rp3331
(I1
(I9
tp3332
g70
I00
S'1\xa0y??\xc7@9\xfb\xb8\xc4<c\xe8l7b\x94\xa47\x84)=7Z\x82\x1e:\xb5\xc8\x177\x9ey38'
p3333
tp3334
bsg128
g3309
sg40
I0
sg129
I00
sg130
(lp3335
sg132
F-0.10623183571146466
sg133
I9
sbsba(iMCTS
Action
p3336
(dp3337
g28
I8
sg29
I0
sg34
g1012
sg35
g30
(g18
S'`$5{)\x8a\xbe\xbf'
p3338
tp3339
Rp3340
sg39
g3340
sg40
I1
sg41
F-0.11929568536756241
sg42
F0.0
sg43
g30
(g18
S'`$5{)\x8a\xbe\xbf'
p3341
tp3342
Rp3343
sg47
I0
sg51
g0
(g1
g2
Ntp3344
Rp3345
(dp3346
g6
g3336
sg7
g8
(g9
(I0
tp3347
g11
tp3348
Rp3349
(I1
(I2
tp3350
g18
I00
S'\x00\x00\x00\x00\x937\xe5\xbf\x00\x00\x00\x00\x80\x96\x87\xbf'
p3351
tp3352
bsg23
Nsg24
(lp3353
(iMCTS
Action
p3354
(dp3355
g28
I0
sg29
I0
sg34
g3345
sg35
g8
(g9
(I0
tp3356
g11
tp3357
Rp3358
(I1
(I1
I1
tp3359
g70
I00
S'\x109\xc9\xbc'
p3360
tp3361
bsg40
I0
sg41
g3358
sg43
I0
sg47
F1.0
sba(iMCTS
Action
p3362
(dp3363
g28
I1
sg29
I0
sg34
g3345
sg35
g3358
sg40
I0
sg41
g3358
sg43
I0
sg47
F1.0
sba(iMCTS
Action
p3364
(dp3365
g28
I2
sg29
I0
sg34
g3345
sg35
g3358
sg40
I0
sg41
g3358
sg43
I0
sg47
F1.0
sba(iMCTS
Action
p3366
(dp3367
g28
I3
sg29
I0
sg34
g3345
sg35
g3358
sg40
I0
sg41
g3358
sg43
I0
sg47
F1.0
sba(iMCTS
Action
p3368
(dp3369
g28
I4
sg29
I0
sg34
g3345
sg35
g3358
sg40
I0
sg41
g3358
sg43
I0
sg47
F1.0
sba(iMCTS
Action
p3370
(dp3371
g28
I5
sg29
I0
sg34
g3345
sg35
g3358
sg40
I0
sg41
g3358
sg43
I0
sg47
F1.0
sba(iMCTS
Action
p3372
(dp3373
g28
I6
sg29
I0
sg34
g3345
sg35
g3358
sg40
I0
sg41
g3358
sg43
I0
sg47
F1.0
sba(iMCTS
Action
p3374
(dp3375
g28
I7
sg29
I0
sg34
g3345
sg35
g3358
sg40
I0
sg41
g3358
sg43
I0
sg47
F1.0
sba(iMCTS
Action
p3376
(dp3377
g28
I8
sg29
I0
sg34
g3345
sg35
g3358
sg40
I0
sg41
g3358
sg43
I0
sg47
F1.0
sbasg121
g8
(g9
(I0
tp3378
g11
tp3379
Rp3380
(I1
(I9
tp3381
g70
I00
S'i\xb9z?m\xab\x019\xb2$\xa1<\\\x18X7\xc1"\xa47\xc6C/7<\xc9::\'i"7\xf0;L8'
p3382
tp3383
bsg128
g3358
sg40
I0
sg129
I00
sg130
(lp3384
sg132
F-0.09473234303472244
sg133
I9
sbsbasg121
g8
(g9
(I0
tp3385
g11
tp3386
Rp3387
(I1
(I9
tp3388
g70
I00
S'\xd0/\x7f?\xbf:\xf39[\xf5(;\xa7\x00\xb36\x0c\xda\x8e6[\xb3\x816Jd\xf88[b65l}\x0c6'
p3389
tp3390
bsg128
g8
(g9
(I0
tp3391
g11
tp3392
Rp3393
(I1
(I1
I1
tp3394
g70
I00
S'\x00Ug\xbc'
p3395
tp3396
bsg40
I42
sg129
I00
sg130
(lp3397
g3144
ag30
(g18
S'@\x97_\xe8\x99\x84\xa4\xbf'
p3398
tp3399
Rp3400
ag30
(g18
S'\xe0El;\xaf\x0b\xbd\xbf'
p3401
tp3402
Rp3403
ag30
(g18
S'p\x8d\xc7>\x01\xe0\xae\xbf'
p3404
tp3405
Rp3406
ag30
(g18
S'\xce!\x93\xb2\xab\xb5\xd0\xbf'
p3407
tp3408
Rp3409
ag30
(g18
S'\xa8<\\\x0b\xfb`\xbd\xbf'
p3410
tp3411
Rp3412
ag30
(g18
S'\x9e\x9cM\xb9%O\xd3\xbf'
p3413
tp3414
Rp3415
ag30
(g18
S'\xc8i\x19\xc8\xdf\x03\xb2\xbf'
p3416
tp3417
Rp3418
ag30
(g18
S'Pf\xa3:\xc1\x9e\xc0\xbf'
p3419
tp3420
Rp3421
ag30
(g18
S'`\xf1u\xad\x94\xd1\xa2\xbf'
p3422
tp3423
Rp3424
ag30
(g18
S'\xdc\x04q\x96=\x87\xc6\xbf'
p3425
tp3426
Rp3427
ag30
(g18
S'\x18\x8eH3\xb5\xc9\xcf\xbf'
p3428
tp3429
Rp3430
ag30
(g18
S'X\x9f\xf2JK\xc2\xba\xbf'
p3431
tp3432
Rp3433
ag30
(g18
S'x(T\x7fG\x12\xc4\xbf'
p3434
tp3435
Rp3436
ag30
(g18
S'\x88V\x08\xdf\xf3\xf4\xcd\xbf'
p3437
tp3438
Rp3439
ag30
(g18
S'\xc0\xd6MM\xf8 \x93\xbf'
p3440
tp3441
Rp3442
ag30
(g18
S'\xa0\x8a\xf3m\x85\r\xaa\xbf'
p3443
tp3444
Rp3445
ag30
(g18
S'Ph\xefpc7\xcd\xbf'
p3446
tp3447
Rp3448
ag30
(g18
S'\x80\xce\xf1Z\x83\x01\xab\xbf'
p3449
tp3450
Rp3451
ag30
(g18
S't\xc1\xe0\xcf\x14a\xc7\xbf'
p3452
tp3453
Rp3454
ag30
(g18
S'\x98^`\xb5\xb4V\xbf\xbf'
p3455
tp3456
Rp3457
ag30
(g18
S'\x8cz\xb6*\xc6\xea\xc3\xbf'
p3458
tp3459
Rp3460
ag30
(g18
S' \xc5\x90\xb4\x08~\x92\xbf'
p3461
tp3462
Rp3463
ag30
(g18
S'\xe2\x1c\x81\x98\xf6\xa0\xd1\xbf'
p3464
tp3465
Rp3466
ag30
(g18
S'\xa05\xb8\x00o\xc4\x96\xbf'
p3467
tp3468
Rp3469
ag30
(g18
S'\xc4\x99\xd7\xafr1\xcc\xbf'
p3470
tp3471
Rp3472
ag30
(g18
S'`\xea\xeb\x11=\xba\xb9\xbf'
p3473
tp3474
Rp3475
ag30
(g18
S'6V\xc7\xff\xde<\xd3\xbf'
p3476
tp3477
Rp3478
ag30
(g18
S'\xa0\xa9\xff\xb5\xe5\x81\x9f\xbf'
p3479
tp3480
Rp3481
ag3242
ag3095
ag30
(g18
S'`\xe8\x82\xa2\xac\x1f\xc9\xbf'
p3482
tp3483
Rp3484
ag3193
ag3340
ag3291
ag30
(g18
S'\x98\x80$6\xd82\xbd\xbf'
p3485
tp3486
Rp3487
ag30
(g18
S'\x00^\xf1\xc4\xcf\x01\xb6\xbf'
p3488
tp3489
Rp3490
ag30
(g18
S'\xb8\x1f\x17M\xe9P\xca\xbf'
p3491
tp3492
Rp3493
ag30
(g18
S'\x16\xee\xdd\xb6\x08\x88\xd4\xbf'
p3494
tp3495
Rp3496
ag30
(g18
S'\x80Nu^0\x03\x98\xbf'
p3497
tp3498
Rp3499
ag30
(g18
S'\xb0\xec\xa62_\xf6\xab\xbf'
p3500
tp3501
Rp3502
ag30
(g18
S'`\x03\x8cF2h\x9b\xbf'
p3503
tp3504
Rp3505
asg132
F-0.20344424997617105
sg133
I9
sbsba(iMCTS
Action
p3506
(dp3507
g28
I1
sg29
I0
sg34
g988
sg35
g30
(g18
S'\xd2\x95\xc9b\x8a\xb6\xd3\xbf'
p3508
tp3509
Rp3510
sg39
g3510
sg40
I1
sg41
F-0.30801639220439114
sg42
F0.0
sg43
g30
(g18
S'\xd2\x95\xc9b\x8a\xb6\xd3\xbf'
p3511
tp3512
Rp3513
sg47
I0
sg51
g0
(g1
g2
Ntp3514
Rp3515
(dp3516
g6
g3506
sg7
g8
(g9
(I0
tp3517
g11
tp3518
Rp3519
(I1
(I2
tp3520
g18
I00
S'\x00\x00\x00\x00\x88\x98\xe6\xbf\x00\x00\x00@Y\xab\xd6\xbf'
p3521
tp3522
bsg23
Nsg24
(lp3523
(iMCTS
Action
p3524
(dp3525
g28
I0
sg29
I0
sg34
g3515
sg35
g8
(g9
(I0
tp3526
g11
tp3527
Rp3528
(I1
(I1
I1
tp3529
g70
I00
S'\xf0\xd4\xfc\xbd'
p3530
tp3531
bsg40
I0
sg41
g3528
sg43
I0
sg47
F1.0
sba(iMCTS
Action
p3532
(dp3533
g28
I1
sg29
I0
sg34
g3515
sg35
g3528
sg40
I0
sg41
g3528
sg43
I0
sg47
F1.0
sba(iMCTS
Action
p3534
(dp3535
g28
I2
sg29
I0
sg34
g3515
sg35
g3528
sg40
I0
sg41
g3528
sg43
I0
sg47
F1.0
sba(iMCTS
Action
p3536
(dp3537
g28
I3
sg29
I0
sg34
g3515
sg35
g3528
sg40
I0
sg41
g3528
sg43
I0
sg47
F1.0
sba(iMCTS
Action
p3538
(dp3539
g28
I4
sg29
I0
sg34
g3515
sg35
g3528
sg40
I0
sg41
g3528
sg43
I0
sg47
F1.0
sba(iMCTS
Action
p3540
(dp3541
g28
I5
sg29
I0
sg34
g3515
sg35
g3528
sg40
I0
sg41
g3528
sg43
I0
sg47
F1.0
sba(iMCTS
Action
p3542
(dp3543
g28
I6
sg29
I0
sg34
g3515
sg35
g3528
sg40
I0
sg41
g3528
sg43
I0
sg47
F1.0
sba(iMCTS
Action
p3544
(dp3545
g28
I7
sg29
I0
sg34
g3515
sg35
g3528
sg40
I0
sg41
g3528
sg43
I0
sg47
F1.0
sba(iMCTS
Action
p3546
(dp3547
g28
I8
sg29
I0
sg34
g3515
sg35
g3528
sg40
I0
sg41
g3528
sg43
I0
sg47
F1.0
sbasg121
g8
(g9
(I0
tp3548
g11
tp3549
Rp3550
(I1
(I9
tp3551
g70
I00
S'\xdb\xf2\x7f?\x9b\xe5\xb25~\xa6\xbd6j\xe3\xb44\xd3\x00\x195EV\x964\xff&I9\xe6\xf8`3\x96\x8f\xe84'
p3552
tp3553
bsg128
g3528
sg40
I0
sg129
I00
sg130
(lp3554
sg132
F-0.18456337115489163
sg133
I9
sbsba(iMCTS
Action
p3555
(dp3556
g28
I2
sg29
I0
sg34
g988
sg35
g8
(g9
(I0
tp3557
g11
tp3558
Rp3559
(I1
(I1
I1
tp3560
g70
I00
S'i\x13\x85\xbe'
p3561
tp3562
bsg40
I0
sg41
g3559
sg43
I0
sg47
F1.0
sba(iMCTS
Action
p3563
(dp3564
g28
I3
sg29
I0
sg34
g988
sg35
g3559
sg40
I0
sg41
g3559
sg43
I0
sg47
F1.0
sba(iMCTS
Action
p3565
(dp3566
g28
I4
sg29
I0
sg34
g988
sg35
g3559
sg40
I0
sg41
g3559
sg43
I0
sg47
F1.0
sba(iMCTS
Action
p3567
(dp3568
g28
I5
sg29
I0
sg34
g988
sg35
g3559
sg40
I0
sg41
g3559
sg43
I0
sg47
F1.0
sba(iMCTS
Action
p3569
(dp3570
g28
I6
sg29
I0
sg34
g988
sg35
g3559
sg40
I0
sg41
g3559
sg43
I0
sg47
F1.0
sba(iMCTS
Action
p3571
(dp3572
g28
I7
sg29
I0
sg34
g988
sg35
g30
(g18
S'\xfe\x96\x9b\x87\xc8\x8f\xe0\xbf'
p3573
tp3574
Rp3575
sg39
g3575
sg40
I1
sg41
F-0.5175516747083007
sg42
F0.0
sg43
g30
(g18
S'\xfe\x96\x9b\x87\xc8\x8f\xe0\xbf'
p3576
tp3577
Rp3578
sg47
I0
sg51
g0
(g1
g2
Ntp3579
Rp3580
(dp3581
g6
g3571
sg7
g8
(g9
(I0
tp3582
g11
tp3583
Rp3584
(I1
(I2
tp3585
g18
I00
S'\x00\x00\x00\x80\x16U\xf1\xbf\x00\x00\x00\x00\x84\xdb\xc3\xbf'
p3586
tp3587
bsg23
Nsg24
(lp3588
(iMCTS
Action
p3589
(dp3590
g28
I0
sg29
I0
sg34
g3580
sg35
g8
(g9
(I0
tp3591
g11
tp3592
Rp3593
(I1
(I1
I1
tp3594
g70
I00
S'H\xcb\x95\xbd'
p3595
tp3596
bsg40
I0
sg41
g3593
sg43
I0
sg47
F1.0
sba(iMCTS
Action
p3597
(dp3598
g28
I1
sg29
I0
sg34
g3580
sg35
g3593
sg40
I0
sg41
g3593
sg43
I0
sg47
F1.0
sba(iMCTS
Action
p3599
(dp3600
g28
I2
sg29
I0
sg34
g3580
sg35
g3593
sg40
I0
sg41
g3593
sg43
I0
sg47
F1.0
sba(iMCTS
Action
p3601
(dp3602
g28
I3
sg29
I0
sg34
g3580
sg35
g3593
sg40
I0
sg41
g3593
sg43
I0
sg47
F1.0
sba(iMCTS
Action
p3603
(dp3604
g28
I4
sg29
I0
sg34
g3580
sg35
g3593
sg40
I0
sg41
g3593
sg43
I0
sg47
F1.0
sba(iMCTS
Action
p3605
(dp3606
g28
I5
sg29
I0
sg34
g3580
sg35
g3593
sg40
I0
sg41
g3593
sg43
I0
sg47
F1.0
sba(iMCTS
Action
p3607
(dp3608
g28
I6
sg29
I0
sg34
g3580
sg35
g3593
sg40
I0
sg41
g3593
sg43
I0
sg47
F1.0
sba(iMCTS
Action
p3609
(dp3610
g28
I7
sg29
I0
sg34
g3580
sg35
g3593
sg40
I0
sg41
g3593
sg43
I0
sg47
F1.0
sba(iMCTS
Action
p3611
(dp3612
g28
I8
sg29
I0
sg34
g3580
sg35
g3593
sg40
I0
sg41
g3593
sg43
I0
sg47
F1.0
sbasg121
g8
(g9
(I0
tp3613
g11
tp3614
Rp3615
(I1
(I9
tp3616
g70
I00
S"E}i?\xdb\x1c\xa7=\x81\x81\xce;\x10\xa4L7lx'6P.\xee6\xc6H*7\x82\x0e\xaa3\xd8\xb9\x074"
p3617
tp3618
bsg128
g3593
sg40
I0
sg129
I00
sg130
(lp3619
sg132
F-0.44441004024403674
sg133
I9
sbsba(iMCTS
Action
p3620
(dp3621
g28
I8
sg29
I0
sg34
g988
sg35
g3559
sg40
I0
sg41
g3559
sg43
I0
sg47
F1.0
sbasg121
g8
(g9
(I0
tp3622
g11
tp3623
Rp3624
(I1
(I9
tp3625
g70
I00
S'\x0c\xa0z?\x96\xb8\xa9<1?\x8c9>\xf2t6\x8b\x83\x1e5\x8c\xa5\x106\x9c\xd9t6\x8b\x18\xef1\x15(n2'
p3626
tp3627
bsg128
g3559
sg40
I45
sg129
I00
sg130
(lp3628
g3575
ag30
(g18
S'\xd0{\x1a\x10 \xd9\xcb\xbf'
p3629
tp3630
Rp3631
ag30
(g18
S'\xe8\xe9\x9cF\xd0\x1f\xd1\xbf'
p3632
tp3633
Rp3634
ag30
(g18
S'\xa0a2\x8a\x9c+\xcf\xbf'
p3635
tp3636
Rp3637
ag30
(g18
S'`O\xe8\xd6&H\xd4\xbf'
p3638
tp3639
Rp3640
ag30
(g18
S'\x96/\xe6/;\xe1\xd0\xbf'
p3641
tp3642
Rp3643
ag30
(g18
S'\xb6_\xa0\xba\xe6\xba\xdd\xbf'
p3644
tp3645
Rp3646
ag30
(g18
S'\x12M\xe4\xcay]\xd4\xbf'
p3647
tp3648
Rp3649
ag30
(g18
S'Cm\xad`0*\xe0\xbf'
p3650
tp3651
Rp3652
ag30
(g18
S'Z\x98\x13\xfa2\x86\xd1\xbf'
p3653
tp3654
Rp3655
ag30
(g18
S'\x10\xf1^\xa5\x9bT\xd5\xbf'
p3656
tp3657
Rp3658
ag30
(g18
S'(\xf8w;\xdb\xbe\xce\xbf'
p3659
tp3660
Rp3661
ag30
(g18
S'V\xc0E\xd3\xd9H\xd8\xbf'
p3662
tp3663
Rp3664
ag30
(g18
S'\xf4\x84\xb1\xa1\x15\xea\xdc\xbf'
p3665
tp3666
Rp3667
ag30
(g18
S'\xbe\xe5\xc9\xda\xcd\xb5\xd3\xbf'
p3668
tp3669
Rp3670
ag30
(g18
S'$R\xb7\xc7^\x0e\xd7\xbf'
p3671
tp3672
Rp3673
ag30
(g18
S',i\x91\xf7\xb4\xff\xdb\xbf'
p3674
tp3675
Rp3676
ag30
(g18
S'\xa86\xc4\x19\x95n\xcc\xbf'
p3677
tp3678
Rp3679
ag30
(g18
S'<\xaf\xcb\xb5\xebF\xd0\xbf'
p3680
tp3681
Rp3682
ag30
(g18
S'\x10\xf2\x84\xc0\xec\xa0\xdb\xbf'
p3683
tp3684
Rp3685
ag30
(g18
S'\xb8wkske\xd0\xbf'
p3686
tp3687
Rp3688
ag30
(g18
S'\xa2\x9e\xfdo\xc5\xb5\xd8\xbf'
p3689
tp3690
Rp3691
ag3510
ag30
(g18
S'\x8eUe5\xe8\xda\xd4\xbf'
p3692
tp3693
Rp3694
ag30
(g18
S'.{h\x1d\x9e\xfa\xd6\xbf'
p3695
tp3696
Rp3697
ag30
(g18
S't\x94\xac&7Z\xcc\xbf'
p3698
tp3699
Rp3700
ag30
(g18
S'\xcaZ\x8e\xa01\xa6\xde\xbf'
p3701
tp3702
Rp3703
ag30
(g18
S'\x84\x821\xf0\x03\xe3\xcc\xbf'
p3704
tp3705
Rp3706
ag30
(g18
S'\xca\n\xf9_\xf4\x1d\xdb\xbf'
p3707
tp3708
Rp3709
ag30
(g18
S'\x808\x88L\xcas\xd3\xbf'
p3710
tp3711
Rp3712
ag30
(g18
S'\x0fJ\xea\x03\r!\xe0\xbf'
p3713
tp3714
Rp3715
ag30
(g18
S'\x04q\xda\xc6\xb2\xfa\xcd\xbf'
p3716
tp3717
Rp3718
ag30
(g18
S'(\xb8\xd8Y\xc1R\xd4\xbf'
p3719
tp3720
Rp3721
ag30
(g18
S'\xba\xcf\x7f%\x1b\xe2\xd1\xbf'
p3722
tp3723
Rp3724
ag30
(g18
S'\x18\xb2NY\x11\x95\xd9\xbf'
p3725
tp3726
Rp3727
ag30
(g18
S'\xd8\x1e\xef\xf78e\xd0\xbf'
p3728
tp3729
Rp3730
ag30
(g18
S'\x00\x87\xdaf\xc5\xa7\xd4\xbf'
p3731
tp3732
Rp3733
ag30
(g18
S'\x98m\x18\xe5\x89s\xd5\xbf'
p3734
tp3735
Rp3736
ag30
(g18
S'\x0e^\x96\x15\xf1Q\xd4\xbf'
p3737
tp3738
Rp3739
ag30
(g18
S'h\x95I\xf9\xae\x85\xd2\xbf'
p3740
tp3741
Rp3742
ag30
(g18
S'\xc4\xcd\x98\xae\xaf-\xda\xbf'
p3743
tp3744
Rp3745
ag30
(g18
S'\xff\x95u\xdf\xa1\xc6\xe0\xbf'
p3746
tp3747
Rp3748
ag30
(g18
S'\xa0%\xe9\x1b\xdc\n\xcd\xbf'
p3749
tp3750
Rp3751
ag30
(g18
S'~\x1bb\xee\x06\x84\xd0\xbf'
p3752
tp3753
Rp3754
ag30
(g18
S'<\xfc\xebX|w\xcd\xbf'
p3755
tp3756
Rp3757
asg132
F-0.5599891271759466
sg133
I9
sbsba(iMCTS
Action
p3758
(dp3759
g28
I2
sg29
I0
sg34
g862
sg35
g30
(g18
S'\x96!\x1d\x9b\x959\xf5\xbf'
p3760
tp3761
Rp3762
sg39
g3762
sg40
I1
sg41
F-1.3265586909420555
sg42
F0.0
sg43
g30
(g18
S'\x96!\x1d\x9b\x959\xf5\xbf'
p3763
tp3764
Rp3765
sg47
I0
sg51
g0
(g1
g2
Ntp3766
Rp3767
(dp3768
g6
g3758
sg7
g8
(g9
(I0
tp3769
g11
tp3770
Rp3771
(I1
(I2
tp3772
g18
I00
S'\x00\x00\x00\x00\x1f\xd2\xef\xbf\x00\x00\x00\x00\x1b\x95\xe7\xbf'
p3773
tp3774
bsg23
Nsg24
(lp3775
(iMCTS
Action
p3776
(dp3777
g28
I0
sg29
I0
sg34
g3767
sg35
g8
(g9
(I0
tp3778
g11
tp3779
Rp3780
(I1
(I1
I1
tp3781
g70
I00
S'\xb6\x01>\xbf'
p3782
tp3783
bsg40
I0
sg41
g3780
sg43
I0
sg47
F1.0
sba(iMCTS
Action
p3784
(dp3785
g28
I1
sg29
I0
sg34
g3767
sg35
g3780
sg40
I0
sg41
g3780
sg43
I0
sg47
F1.0
sba(iMCTS
Action
p3786
(dp3787
g28
I2
sg29
I0
sg34
g3767
sg35
g3780
sg40
I0
sg41
g3780
sg43
I0
sg47
F1.0
sba(iMCTS
Action
p3788
(dp3789
g28
I3
sg29
I0
sg34
g3767
sg35
g3780
sg40
I0
sg41
g3780
sg43
I0
sg47
F1.0
sba(iMCTS
Action
p3790
(dp3791
g28
I4
sg29
I0
sg34
g3767
sg35
g3780
sg40
I0
sg41
g3780
sg43
I0
sg47
F1.0
sba(iMCTS
Action
p3792
(dp3793
g28
I5
sg29
I0
sg34
g3767
sg35
g3780
sg40
I0
sg41
g3780
sg43
I0
sg47
F1.0
sba(iMCTS
Action
p3794
(dp3795
g28
I6
sg29
I0
sg34
g3767
sg35
g3780
sg40
I0
sg41
g3780
sg43
I0
sg47
F1.0
sba(iMCTS
Action
p3796
(dp3797
g28
I7
sg29
I0
sg34
g3767
sg35
g3780
sg40
I0
sg41
g3780
sg43
I0
sg47
F1.0
sba(iMCTS
Action
p3798
(dp3799
g28
I8
sg29
I0
sg34
g3767
sg35
g3780
sg40
I0
sg41
g3780
sg43
I0
sg47
F1.0
sbasg121
g8
(g9
(I0
tp3800
g11
tp3801
Rp3802
(I1
(I9
tp3803
g70
I00
S'\x82\xfe\x7f?\xac>\x1e6o-\x8a4a1$4,y\xda31\x91\xfe35\xd7\xa57{c)0\x91\xd7\x872'
p3804
tp3805
bsg128
g3780
sg40
I0
sg129
I00
sg130
(lp3806
sg132
F-0.584345084107644
sg133
I9
sbsba(iMCTS
Action
p3807
(dp3808
g28
I3
sg29
I0
sg34
g862
sg35
g30
(g18
S'\xb6\xef\xdc{\x87Y\xf2\xbf'
p3809
tp3810
Rp3811
sg39
g3811
sg40
I1
sg41
F-1.146857723083469
sg42
F0.0
sg43
g30
(g18
S'\xb6\xef\xdc{\x87Y\xf2\xbf'
p3812
tp3813
Rp3814
sg47
I0
sg51
g0
(g1
g2
Ntp3815
Rp3816
(dp3817
g6
g3807
sg7
g8
(g9
(I0
tp3818
g11
tp3819
Rp3820
(I1
(I2
tp3821
g18
I00
S'\x00\x00\x00\x802\x80\xf7\xbf\x00\x00\x00\x00\x1e\x16\xc0\xbf'
p3822
tp3823
bsg23
Nsg24
(lp3824
(iMCTS
Action
p3825
(dp3826
g28
I0
sg29
I0
sg34
g3816
sg35
g8
(g9
(I0
tp3827
g11
tp3828
Rp3829
(I1
(I1
I1
tp3830
g70
I00
S'\x0ek\xb2\xbe'
p3831
tp3832
bsg40
I0
sg41
g3829
sg43
I0
sg47
F1.0
sba(iMCTS
Action
p3833
(dp3834
g28
I1
sg29
I0
sg34
g3816
sg35
g3829
sg40
I0
sg41
g3829
sg43
I0
sg47
F1.0
sba(iMCTS
Action
p3835
(dp3836
g28
I2
sg29
I0
sg34
g3816
sg35
g3829
sg40
I0
sg41
g3829
sg43
I0
sg47
F1.0
sba(iMCTS
Action
p3837
(dp3838
g28
I3
sg29
I0
sg34
g3816
sg35
g3829
sg40
I0
sg41
g3829
sg43
I0
sg47
F1.0
sba(iMCTS
Action
p3839
(dp3840
g28
I4
sg29
I0
sg34
g3816
sg35
g3829
sg40
I0
sg41
g3829
sg43
I0
sg47
F1.0
sba(iMCTS
Action
p3841
(dp3842
g28
I5
sg29
I0
sg34
g3816
sg35
g3829
sg40
I0
sg41
g3829
sg43
I0
sg47
F1.0
sba(iMCTS
Action
p3843
(dp3844
g28
I6
sg29
I0
sg34
g3816
sg35
g3829
sg40
I0
sg41
g3829
sg43
I0
sg47
F1.0
sba(iMCTS
Action
p3845
(dp3846
g28
I7
sg29
I0
sg34
g3816
sg35
g3829
sg40
I0
sg41
g3829
sg43
I0
sg47
F1.0
sba(iMCTS
Action
p3847
(dp3848
g28
I8
sg29
I0
sg34
g3816
sg35
g3829
sg40
I0
sg41
g3829
sg43
I0
sg47
F1.0
sbasg121
g8
(g9
(I0
tp3849
g11
tp3850
Rp3851
(I1
(I9
tp3852
g70
I00
S'c\xa4\xa0;\x88z~?z4\x88:\x80\x93`5\xe4\x85\x123\xc3\xc9\xca4\xbe\t$2\xa1h9/b\xd4o/'
p3853
tp3854
bsg128
g3829
sg40
I0
sg129
I00
sg130
(lp3855
sg132
F-0.7983847106361116
sg133
I9
sbsba(iMCTS
Action
p3856
(dp3857
g28
I4
sg29
I0
sg34
g862
sg35
g30
(g18
S'~\x05g?\xca1\xf3\xbf'
p3858
tp3859
Rp3860
sg39
g3860
sg40
I1
sg41
F-1.1996557690293623
sg42
F0.0
sg43
g30
(g18
S'~\x05g?\xca1\xf3\xbf'
p3861
tp3862
Rp3863
sg47
I0
sg51
g0
(g1
g2
Ntp3864
Rp3865
(dp3866
g6
g3856
sg7
g8
(g9
(I0
tp3867
g11
tp3868
Rp3869
(I1
(I2
tp3870
g18
I00
S'\x00\x00\x00\x00B<\xf6\xbf\x00\x00\x00`\xeeT\xd7\xbf'
p3871
tp3872
bsg23
Nsg24
(lp3873
(iMCTS
Action
p3874
(dp3875
g28
I0
sg29
I0
sg34
g3865
sg35
g8
(g9
(I0
tp3876
g11
tp3877
Rp3878
(I1
(I1
I1
tp3879
g70
I00
S'9z\xe2\xbe'
p3880
tp3881
bsg40
I0
sg41
g3878
sg43
I0
sg47
F1.0
sba(iMCTS
Action
p3882
(dp3883
g28
I1
sg29
I0
sg34
g3865
sg35
g3878
sg40
I0
sg41
g3878
sg43
I0
sg47
F1.0
sba(iMCTS
Action
p3884
(dp3885
g28
I2
sg29
I0
sg34
g3865
sg35
g3878
sg40
I0
sg41
g3878
sg43
I0
sg47
F1.0
sba(iMCTS
Action
p3886
(dp3887
g28
I3
sg29
I0
sg34
g3865
sg35
g3878
sg40
I0
sg41
g3878
sg43
I0
sg47
F1.0
sba(iMCTS
Action
p3888
(dp3889
g28
I4
sg29
I0
sg34
g3865
sg35
g3878
sg40
I0
sg41
g3878
sg43
I0
sg47
F1.0
sba(iMCTS
Action
p3890
(dp3891
g28
I5
sg29
I0
sg34
g3865
sg35
g3878
sg40
I0
sg41
g3878
sg43
I0
sg47
F1.0
sba(iMCTS
Action
p3892
(dp3893
g28
I6
sg29
I0
sg34
g3865
sg35
g3878
sg40
I0
sg41
g3878
sg43
I0
sg47
F1.0
sba(iMCTS
Action
p3894
(dp3895
g28
I7
sg29
I0
sg34
g3865
sg35
g3878
sg40
I0
sg41
g3878
sg43
I0
sg47
F1.0
sba(iMCTS
Action
p3896
(dp3897
g28
I8
sg29
I0
sg34
g3865
sg35
g3878
sg40
I0
sg41
g3878
sg43
I0
sg47
F1.0
sbasg121
g8
(g9
(I0
tp3898
g11
tp3899
Rp3900
(I1
(I9
tp3901
g70
I00
S'R\x81\xa8>n\x98+?\xc4D\x19:\xf4`\xb96\x03\x99\xb14\xd5\xbd;6\x018\xdd4b\xc5\xb60\x19B\x1b1'
p3902
tp3903
bsg128
g3878
sg40
I0
sg129
I00
sg130
(lp3904
sg132
F-0.7573170341641736
sg133
I9
sbsba(iMCTS
Action
p3905
(dp3906
g28
I5
sg29
I0
sg34
g862
sg35
g30
(g18
S'\xaa\x9bd\xfbzt\xf5\xbf'
p3907
tp3908
Rp3909
sg39
g3909
sg40
I1
sg41
F-1.3409375972785065
sg42
F0.0
sg43
g30
(g18
S'\xaa\x9bd\xfbzt\xf5\xbf'
p3910
tp3911
Rp3912
sg47
I0
sg51
g0
(g1
g2
Ntp3913
Rp3914
(dp3915
g6
g3905
sg7
g8
(g9
(I0
tp3916
g11
tp3917
Rp3918
(I1
(I2
tp3919
g18
I00
S'\x00\x00\x00\x00\xa2\xd0\xf5\xbf\x00\x00\x00 e\xce\xde\xbf'
p3920
tp3921
bsg23
Nsg24
(lp3922
(iMCTS
Action
p3923
(dp3924
g28
I0
sg29
I0
sg34
g3914
sg35
g8
(g9
(I0
tp3925
g11
tp3926
Rp3927
(I1
(I1
I1
tp3928
g70
I00
S'\xa85\x13\xbf'
p3929
tp3930
bsg40
I0
sg41
g3927
sg43
I0
sg47
F1.0
sba(iMCTS
Action
p3931
(dp3932
g28
I1
sg29
I0
sg34
g3914
sg35
g3927
sg40
I0
sg41
g3927
sg43
I0
sg47
F1.0
sba(iMCTS
Action
p3933
(dp3934
g28
I2
sg29
I0
sg34
g3914
sg35
g3927
sg40
I0
sg41
g3927
sg43
I0
sg47
F1.0
sba(iMCTS
Action
p3935
(dp3936
g28
I3
sg29
I0
sg34
g3914
sg35
g3927
sg40
I0
sg41
g3927
sg43
I0
sg47
F1.0
sba(iMCTS
Action
p3937
(dp3938
g28
I4
sg29
I0
sg34
g3914
sg35
g3927
sg40
I0
sg41
g3927
sg43
I0
sg47
F1.0
sba(iMCTS
Action
p3939
(dp3940
g28
I5
sg29
I0
sg34
g3914
sg35
g3927
sg40
I0
sg41
g3927
sg43
I0
sg47
F1.0
sba(iMCTS
Action
p3941
(dp3942
g28
I6
sg29
I0
sg34
g3914
sg35
g3927
sg40
I0
sg41
g3927
sg43
I0
sg47
F1.0
sba(iMCTS
Action
p3943
(dp3944
g28
I7
sg29
I0
sg34
g3914
sg35
g3927
sg40
I0
sg41
g3927
sg43
I0
sg47
F1.0
sba(iMCTS
Action
p3945
(dp3946
g28
I8
sg29
I0
sg34
g3914
sg35
g3927
sg40
I0
sg41
g3927
sg43
I0
sg47
F1.0
sbasg121
g8
(g9
(I0
tp3947
g11
tp3948
Rp3949
(I1
(I9
tp3950
g70
I00
S'=\xb6\\?c\xfb\x0c>\x08\x82%9z{\x9f6 \x1c\xc34k\xb4-6\x9f\x04\x845U\x9c\xb40z@W1'
p3951
tp3952
bsg128
g3927
sg40
I0
sg129
I00
sg130
(lp3953
sg132
F-0.7659001178778716
sg133
I9
sbsba(iMCTS
Action
p3954
(dp3955
g28
I6
sg29
I0
sg34
g862
sg35
g30
(g18
S'\x16\x9cX\xf6\x01\xe5\xf5\xbf'
p3956
tp3957
Rp3958
sg39
g3958
sg40
I1
sg41
F-1.3684100745101708
sg42
F0.0
sg43
g30
(g18
S'\x16\x9cX\xf6\x01\xe5\xf5\xbf'
p3959
tp3960
Rp3961
sg47
I0
sg51
g0
(g1
g2
Ntp3962
Rp3963
(dp3964
g6
g3954
sg7
g8
(g9
(I0
tp3965
g11
tp3966
Rp3967
(I1
(I2
tp3968
g18
I00
S'\x00\x00\x00\x80V\xf6\xf8\xbf\x00\x00\x00\x00\xf8\x08\xa7\xbf'
p3969
tp3970
bsg23
Nsg24
(lp3971
(iMCTS
Action
p3972
(dp3973
g28
I0
sg29
I0
sg34
g3963
sg35
g8
(g9
(I0
tp3974
g11
tp3975
Rp3976
(I1
(I1
I1
tp3977
g70
I00
S'\xe9\x05\xf8\xbe'
p3978
tp3979
bsg40
I0
sg41
g3976
sg43
I0
sg47
F1.0
sba(iMCTS
Action
p3980
(dp3981
g28
I1
sg29
I0
sg34
g3963
sg35
g3976
sg40
I0
sg41
g3976
sg43
I0
sg47
F1.0
sba(iMCTS
Action
p3982
(dp3983
g28
I2
sg29
I0
sg34
g3963
sg35
g3976
sg40
I0
sg41
g3976
sg43
I0
sg47
F1.0
sba(iMCTS
Action
p3984
(dp3985
g28
I3
sg29
I0
sg34
g3963
sg35
g3976
sg40
I0
sg41
g3976
sg43
I0
sg47
F1.0
sba(iMCTS
Action
p3986
(dp3987
g28
I4
sg29
I0
sg34
g3963
sg35
g3976
sg40
I0
sg41
g3976
sg43
I0
sg47
F1.0
sba(iMCTS
Action
p3988
(dp3989
g28
I5
sg29
I0
sg34
g3963
sg35
g3976
sg40
I0
sg41
g3976
sg43
I0
sg47
F1.0
sba(iMCTS
Action
p3990
(dp3991
g28
I6
sg29
I0
sg34
g3963
sg35
g3976
sg40
I0
sg41
g3976
sg43
I0
sg47
F1.0
sba(iMCTS
Action
p3992
(dp3993
g28
I7
sg29
I0
sg34
g3963
sg35
g3976
sg40
I0
sg41
g3976
sg43
I0
sg47
F1.0
sba(iMCTS
Action
p3994
(dp3995
g28
I8
sg29
I0
sg34
g3963
sg35
g3976
sg40
I0
sg41
g3976
sg43
I0
sg47
F1.0
sbasg121
g8
(g9
(I0
tp3996
g11
tp3997
Rp3998
(I1
(I9
tp3999
g70
I00
S'\t\x80\x7f:\x8d]\x7f?\xca\x0c\xc5:\x8e\xa8\xe74\xec\x1f\x842\xba\xf2K4\xfb\x9b\x1d1\xef\x96\x95.\xdf\x0b\xf0.'
p4000
tp4001
bsg128
g3976
sg40
I0
sg129
I00
sg130
(lp4002
sg132
F-0.8839899835963981
sg133
I9
sbsba(iMCTS
Action
p4003
(dp4004
g28
I7
sg29
I0
sg34
g862
sg35
g30
(g18
S'\xd4\xe1\x94\xe5\xe4\x98\xf4\xbf'
p4005
tp4006
Rp4007
sg39
g4007
sg40
I1
sg41
F-1.2873276680021393
sg42
F0.0
sg43
g30
(g18
S'\xd4\xe1\x94\xe5\xe4\x98\xf4\xbf'
p4008
tp4009
Rp4010
sg47
I0
sg51
g0
(g1
g2
Ntp4011
Rp4012
(dp4013
g6
g4003
sg7
g8
(g9
(I0
tp4014
g11
tp4015
Rp4016
(I1
(I2
tp4017
g18
I00
S'\x00\x00\x00\x00\xffe\xf8\xbf\x00\x00\x00\x00\x08\x90\x98\xbf'
p4018
tp4019
bsg23
Nsg24
(lp4020
(iMCTS
Action
p4021
(dp4022
g28
I0
sg29
I0
sg34
g4012
sg35
g8
(g9
(I0
tp4023
g11
tp4024
Rp4025
(I1
(I1
I1
tp4026
g70
I00
S'kv\xdf\xbe'
p4027
tp4028
bsg40
I0
sg41
g4025
sg43
I0
sg47
F1.0
sba(iMCTS
Action
p4029
(dp4030
g28
I1
sg29
I0
sg34
g4012
sg35
g4025
sg40
I0
sg41
g4025
sg43
I0
sg47
F1.0
sba(iMCTS
Action
p4031
(dp4032
g28
I2
sg29
I0
sg34
g4012
sg35
g4025
sg40
I0
sg41
g4025
sg43
I0
sg47
F1.0
sba(iMCTS
Action
p4033
(dp4034
g28
I3
sg29
I0
sg34
g4012
sg35
g4025
sg40
I0
sg41
g4025
sg43
I0
sg47
F1.0
sba(iMCTS
Action
p4035
(dp4036
g28
I4
sg29
I0
sg34
g4012
sg35
g4025
sg40
I0
sg41
g4025
sg43
I0
sg47
F1.0
sba(iMCTS
Action
p4037
(dp4038
g28
I5
sg29
I0
sg34
g4012
sg35
g4025
sg40
I0
sg41
g4025
sg43
I0
sg47
F1.0
sba(iMCTS
Action
p4039
(dp4040
g28
I6
sg29
I0
sg34
g4012
sg35
g4025
sg40
I0
sg41
g4025
sg43
I0
sg47
F1.0
sba(iMCTS
Action
p4041
(dp4042
g28
I7
sg29
I0
sg34
g4012
sg35
g4025
sg40
I0
sg41
g4025
sg43
I0
sg47
F1.0
sba(iMCTS
Action
p4043
(dp4044
g28
I8
sg29
I0
sg34
g4012
sg35
g4025
sg40
I0
sg41
g4025
sg43
I0
sg47
F1.0
sbasg121
g8
(g9
(I0
tp4045
g11
tp4046
Rp4047
(I1
(I9
tp4048
g70
I00
S'6\xc6i:\x00G\x7f?\xbe\x02\xfd:\t\xc1\xf94\xeb\xf7\x902k\xe5Y4\xfd\xf3$1\xf7\n\xb6.)H\x15/'
p4049
tp4050
bsg128
g4025
sg40
I0
sg129
I00
sg130
(lp4051
sg132
F-0.8508773355989564
sg133
I9
sbsba(iMCTS
Action
p4052
(dp4053
g28
I8
sg29
I0
sg34
g862
sg35
g30
(g18
S'\xc0\xae\x1b\xc4C\xd3\xf5\xbf'
p4054
tp4055
Rp4056
sg39
g4056
sg40
I1
sg41
F-1.3640782986139328
sg42
F0.0
sg43
g30
(g18
S'\xc0\xae\x1b\xc4C\xd3\xf5\xbf'
p4057
tp4058
Rp4059
sg47
I0
sg51
g0
(g1
g2
Ntp4060
Rp4061
(dp4062
g6
g4052
sg7
g8
(g9
(I0
tp4063
g11
tp4064
Rp4065
(I1
(I2
tp4066
g18
I00
S'\x00\x00\x00\x00\x1a\xf6\xf8\xbf\x00\x00\x00\x00\xde\xf8\xc0\xbf'
p4067
tp4068
bsg23
Nsg24
(lp4069
(iMCTS
Action
p4070
(dp4071
g28
I0
sg29
I0
sg34
g4061
sg35
g8
(g9
(I0
tp4072
g11
tp4073
Rp4074
(I1
(I1
I1
tp4075
g70
I00
S'\xd0\xa9\xf5\xbe'
p4076
tp4077
bsg40
I0
sg41
g4074
sg43
I0
sg47
F1.0
sba(iMCTS
Action
p4078
(dp4079
g28
I1
sg29
I0
sg34
g4061
sg35
g4074
sg40
I0
sg41
g4074
sg43
I0
sg47
F1.0
sba(iMCTS
Action
p4080
(dp4081
g28
I2
sg29
I0
sg34
g4061
sg35
g4074
sg40
I0
sg41
g4074
sg43
I0
sg47
F1.0
sba(iMCTS
Action
p4082
(dp4083
g28
I3
sg29
I0
sg34
g4061
sg35
g4074
sg40
I0
sg41
g4074
sg43
I0
sg47
F1.0
sba(iMCTS
Action
p4084
(dp4085
g28
I4
sg29
I0
sg34
g4061
sg35
g4074
sg40
I0
sg41
g4074
sg43
I0
sg47
F1.0
sba(iMCTS
Action
p4086
(dp4087
g28
I5
sg29
I0
sg34
g4061
sg35
g4074
sg40
I0
sg41
g4074
sg43
I0
sg47
F1.0
sba(iMCTS
Action
p4088
(dp4089
g28
I6
sg29
I0
sg34
g4061
sg35
g4074
sg40
I0
sg41
g4074
sg43
I0
sg47
F1.0
sba(iMCTS
Action
p4090
(dp4091
g28
I7
sg29
I0
sg34
g4061
sg35
g4074
sg40
I0
sg41
g4074
sg43
I0
sg47
F1.0
sba(iMCTS
Action
p4092
(dp4093
g28
I8
sg29
I0
sg34
g4061
sg35
g4074
sg40
I0
sg41
g4074
sg43
I0
sg47
F1.0
sbasg121
g8
(g9
(I0
tp4094
g11
tp4095
Rp4096
(I1
(I9
tp4097
g70
I00
S'\x12!?;\x81\r\x7f??@M:\xe4\x85\x175u\x97\xb32^\x05\x894\x8aP\xa51L\xbd\xb5.#\xd0\xf7.'
p4098
tp4099
bsg128
g4074
sg40
I0
sg129
I00
sg130
(lp4100
sg132
F-0.884267107055095
sg133
I9
sbsbasg121
g8
(g9
(I0
tp4101
g11
tp4102
Rp4103
(I1
(I9
tp4104
g70
I00
S'4\x04\xef<Gux?\x17\xb5\x939J\xc2\xa65\xb3\xc4R3\xab\xb7\x1f5\xdbv\xc82]\xf3\xee.pdN/'
p4105
tp4106
bsg128
g8
(g9
(I0
tp4107
g11
tp4108
Rp4109
(I1
(I1
I1
tp4110
g70
I00
S'A\xd8?\xbf'
p4111
tp4112
bsg40
I55
sg129
I00
sg130
(lp4113
g3762
ag30
(g18
S'\xc5\xc2j\xe1\xa4<\xea\xbf'
p4114
tp4115
Rp4116
ag30
(g18
S'\xe2,\x83l\x9b=\xf1\xbf'
p4117
tp4118
Rp4119
ag30
(g18
S'\xb9aqU\xb6\xe1\xe8\xbf'
p4120
tp4121
Rp4122
ag30
(g18
S'\xb97\xb9tV{\xea\xbf'
p4123
tp4124
Rp4125
ag30
(g18
S'-[\xf7sU\xb6\xe9\xbf'
p4126
tp4127
Rp4128
ag30
(g18
S'u\xea\xde\xbc\x81\x0f\xec\xbf'
p4129
tp4130
Rp4131
ag30
(g18
S'\x90\xda]\xe9\x0b\\\xea\xbf'
p4132
tp4133
Rp4134
ag30
(g18
S'Py]\xd7pd\xf0\xbf'
p4135
tp4136
Rp4137
ag30
(g18
S'U\xd0\x9d\x9dd9\xe8\xbf'
p4138
tp4139
Rp4140
ag30
(g18
S'N\xe9\xdc6+\x1a\xec\xbf'
p4141
tp4142
Rp4143
ag30
(g18
S'\x04\x18\x0cY\xcf\n\xf1\xbf'
p4144
tp4145
Rp4146
ag30
(g18
S"Z\x91k\x93\x0c'\xf1\xbf"
p4147
tp4148
Rp4149
ag30
(g18
S'\xf2\x8et\xce\x87\xae\xea\xbf'
p4150
tp4151
Rp4152
ag30
(g18
S'M;\x1a$\xbc\x95\xec\xbf'
p4153
tp4154
Rp4155
ag3811
ag30
(g18
S'\xcf\xc0H %\x9b\xe9\xbf'
p4156
tp4157
Rp4158
ag30
(g18
S'\xf0\xa2\r;\xdb\x0f\xee\xbf'
p4159
tp4160
Rp4161
ag30
(g18
S'\xa0\xc2!\x91<0\xf0\xbf'
p4162
tp4163
Rp4164
ag3909
ag30
(g18
S'\xa4\xb5\xcf>U\xc6\xeb\xbf'
p4165
tp4166
Rp4167
ag3860
ag30
(g18
S'\xd7kF\xb5\x9dr\xed\xbf'
p4168
tp4169
Rp4170
ag3958
ag4056
ag30
(g18
S'[w3\xcdH\xeb\xef\xbf'
p4171
tp4172
Rp4173
ag30
(g18
S'o\xd0\xdb\x97\x13\x07\xe9\xbf'
p4174
tp4175
Rp4176
ag30
(g18
S'c\x9aP,\xe4\x0e\xea\xbf'
p4177
tp4178
Rp4179
ag30
(g18
S'\xcd;\xad\xb1\xe4\xbb\xef\xbf'
p4180
tp4181
Rp4182
ag4007
ag30
(g18
S'\xa1~ \x0b$\x1e\xea\xbf'
p4183
tp4184
Rp4185
ag30
(g18
S'\x16\x92i\tQF\xee\xbf'
p4186
tp4187
Rp4188
ag30
(g18
S'\xae\x8d\xcf\x82\xb3\xc6\xeb\xbf'
p4189
tp4190
Rp4191
ag30
(g18
S'\x8cm\x1dl\xe2X\xec\xbf'
p4192
tp4193
Rp4194
ag30
(g18
S'\\\x00\x1f`\xbdh\xed\xbf'
p4195
tp4196
Rp4197
ag30
(g18
S'\xe2\xe7\x15\x1b\xfc\x01\xe9\xbf'
p4198
tp4199
Rp4200
ag30
(g18
S'\x15\xf8\xd8\x90C\x9f\xf0\xbf'
p4201
tp4202
Rp4203
ag30
(g18
S'f#wM/$\xe9\xbf'
p4204
tp4205
Rp4206
ag30
(g18
S'*Hg\x81hz\xef\xbf'
p4207
tp4208
Rp4209
ag30
(g18
S'\x05\xdf\xaewS\xa5\xeb\xbf'
p4210
tp4211
Rp4212
ag30
(g18
S'j\x86\xaa\xaa=\x06\xf1\xbf'
p4213
tp4214
Rp4215
ag30
(g18
S'\x06_!\x03\x1bj\xe9\xbf'
p4216
tp4217
Rp4218
ag30
(g18
S'\xd9\x1eW\xfe\xce\x14\xec\xbf'
p4219
tp4220
Rp4221
ag30
(g18
S'\xa2\xaa*\xe4{\xdc\xea\xbf'
p4222
tp4223
Rp4224
ag30
(g18
S'\xd1\x1b\x12\xfe\xf6\xb5\xee\xbf'
p4225
tp4226
Rp4227
ag30
(g18
S'1Rb\xcd\n\x1e\xea\xbf'
p4228
tp4229
Rp4230
ag30
(g18
S'E\x06\xd8\x04Q?\xec\xbf'
p4231
tp4232
Rp4233
ag30
(g18
S'\x91\xf9\xf6C3\xa5\xec\xbf'
p4234
tp4235
Rp4236
ag30
(g18
S'\xcc\xf15\xdcf\x14\xec\xbf'
p4237
tp4238
Rp4239
ag30
(g18
S'y\x8d\x0f\xceE.\xeb\xbf'
p4240
tp4241
Rp4242
ag30
(g18
S'\xa7)\xb7(F\x02\xef\xbf'
p4243
tp4244
Rp4245
ag30
(g18
S'b,p\x18\x08Y\xf1\xbf'
p4246
tp4247
Rp4248
ag30
(g18
S'-\x0ceX%.\xe9\xbf'
p4249
tp4250
Rp4251
ag30
(g18
S'\x84\xd0\x9b\xc8q-\xea\xbf'
p4252
tp4253
Rp4254
ag30
(g18
S'\xd4\xc1\xa5gMI\xe9\xbf'
p4255
tp4256
Rp4257
asg132
F-0.9964885398975
sg133
I9
sbsba(iMCTS
Action
p4258
(dp4259
g28
I2
sg29
I0
sg34
g736
sg35
g30
(g18
S'M\x99\xf4\xf7\xc2q\x03\xc0'
p4260
tp4261
Rp4262
sg39
g4262
sg40
I1
sg41
F-2.430547654296936
sg42
F0.0
sg43
g30
(g18
S'M\x99\xf4\xf7\xc2q\x03\xc0'
p4263
tp4264
Rp4265
sg47
I0
sg51
g0
(g1
g2
Ntp4266
Rp4267
(dp4268
g6
g4258
sg7
g8
(g9
(I0
tp4269
g11
tp4270
Rp4271
(I1
(I2
tp4272
g18
I00
S'\x00\x00\x00\x00j\xe8\xf6\xbf\x00\x00\x00\xc0B\xa1\xec\xbf'
p4273
tp4274
bsg23
Nsg24
(lp4275
(iMCTS
Action
p4276
(dp4277
g28
I0
sg29
I0
sg34
g4267
sg35
g8
(g9
(I0
tp4278
g11
tp4279
Rp4280
(I1
(I1
I1
tp4281
g70
I00
S'\xb2\x9e\xb6\xbf'
p4282
tp4283
bsg40
I0
sg41
g4280
sg43
I0
sg47
F1.0
sba(iMCTS
Action
p4284
(dp4285
g28
I1
sg29
I0
sg34
g4267
sg35
g4280
sg40
I0
sg41
g4280
sg43
I0
sg47
F1.0
sba(iMCTS
Action
p4286
(dp4287
g28
I2
sg29
I0
sg34
g4267
sg35
g4280
sg40
I0
sg41
g4280
sg43
I0
sg47
F1.0
sba(iMCTS
Action
p4288
(dp4289
g28
I3
sg29
I0
sg34
g4267
sg35
g4280
sg40
I0
sg41
g4280
sg43
I0
sg47
F1.0
sba(iMCTS
Action
p4290
(dp4291
g28
I4
sg29
I0
sg34
g4267
sg35
g4280
sg40
I0
sg41
g4280
sg43
I0
sg47
F1.0
sba(iMCTS
Action
p4292
(dp4293
g28
I5
sg29
I0
sg34
g4267
sg35
g4280
sg40
I0
sg41
g4280
sg43
I0
sg47
F1.0
sba(iMCTS
Action
p4294
(dp4295
g28
I6
sg29
I0
sg34
g4267
sg35
g4280
sg40
I0
sg41
g4280
sg43
I0
sg47
F1.0
sba(iMCTS
Action
p4296
(dp4297
g28
I7
sg29
I0
sg34
g4267
sg35
g4280
sg40
I0
sg41
g4280
sg43
I0
sg47
F1.0
sba(iMCTS
Action
p4298
(dp4299
g28
I8
sg29
I0
sg34
g4267
sg35
g4280
sg40
I0
sg41
g4280
sg43
I0
sg47
F1.0
sbasg121
g8
(g9
(I0
tp4300
g11
tp4301
Rp4302
(I1
(I9
tp4303
g70
I00
S'6\x91\x7f?\xb4\xf1\xdc:\x9b9\xe95\xd4~\x8f5\x00E\xfa3x\x1225\xa8\xa1\xad5\xf3b\xed.\xee\xb4\x0c1'
p4304
tp4305
bsg128
g4280
sg40
I0
sg129
I00
sg130
(lp4306
sg132
F-1.003829657699646
sg133
I9
sbsba(iMCTS
Action
p4307
(dp4308
g28
I3
sg29
I0
sg34
g736
sg35
g30
(g18
S'J\xbd`;\xab\xd2\x02\xc0'
p4309
tp4310
Rp4311
sg39
g4311
sg40
I1
sg41
F-2.3528656615159536
sg42
F0.0
sg43
g30
(g18
S'J\xbd`;\xab\xd2\x02\xc0'
p4312
tp4313
Rp4314
sg47
I0
sg51
g0
(g1
g2
Ntp4315
Rp4316
(dp4317
g6
g4307
sg7
g8
(g9
(I0
tp4318
g11
tp4319
Rp4320
(I1
(I2
tp4321
g18
I00
S'\x00\x00\x00\x00M\xd2\xfe\xbf\x00\x00\x00\x00\xc4*\xa7\xbf'
p4322
tp4323
bsg23
Nsg24
(lp4324
(iMCTS
Action
p4325
(dp4326
g28
I0
sg29
I0
sg34
g4316
sg35
g8
(g9
(I0
tp4327
g11
tp4328
Rp4329
(I1
(I1
I1
tp4330
g70
I00
S'\xe2\xde\x8e\xbf'
p4331
tp4332
bsg40
I0
sg41
g4329
sg43
I0
sg47
F1.0
sba(iMCTS
Action
p4333
(dp4334
g28
I1
sg29
I0
sg34
g4316
sg35
g4329
sg40
I0
sg41
g4329
sg43
I0
sg47
F1.0
sba(iMCTS
Action
p4335
(dp4336
g28
I2
sg29
I0
sg34
g4316
sg35
g4329
sg40
I0
sg41
g4329
sg43
I0
sg47
F1.0
sba(iMCTS
Action
p4337
(dp4338
g28
I3
sg29
I0
sg34
g4316
sg35
g4329
sg40
I0
sg41
g4329
sg43
I0
sg47
F1.0
sba(iMCTS
Action
p4339
(dp4340
g28
I4
sg29
I0
sg34
g4316
sg35
g4329
sg40
I0
sg41
g4329
sg43
I0
sg47
F1.0
sba(iMCTS
Action
p4341
(dp4342
g28
I5
sg29
I0
sg34
g4316
sg35
g4329
sg40
I0
sg41
g4329
sg43
I0
sg47
F1.0
sba(iMCTS
Action
p4343
(dp4344
g28
I6
sg29
I0
sg34
g4316
sg35
g4329
sg40
I0
sg41
g4329
sg43
I0
sg47
F1.0
sba(iMCTS
Action
p4345
(dp4346
g28
I7
sg29
I0
sg34
g4316
sg35
g4329
sg40
I0
sg41
g4329
sg43
I0
sg47
F1.0
sba(iMCTS
Action
p4347
(dp4348
g28
I8
sg29
I0
sg34
g4316
sg35
g4329
sg40
I0
sg41
g4329
sg43
I0
sg47
F1.0
sbasg121
g8
(g9
(I0
tp4349
g11
tp4350
Rp4351
(I1
(I9
tp4352
g70
I00
S'\xb5K\xe69$\x84\x7f?g\x17\xbe:\x1a\x02\x904\xa8\xcb%2\xa8\xc5\x074z\x8a\x950\xb9V\xcc-\xd3Q\x8a.'
p4353
tp4354
bsg128
g4329
sg40
I0
sg129
I00
sg130
(lp4355
sg132
F-1.236688817872765
sg133
I9
sbsba(iMCTS
Action
p4356
(dp4357
g28
I4
sg29
I0
sg34
g736
sg35
g30
(g18
S'\xdf`\xb2\x93\x11\x0b\x03\xc0'
p4358
tp4359
Rp4360
sg39
g4360
sg40
I1
sg41
F-2.3804046191036003
sg42
F0.0
sg43
g30
(g18
S'\xdf`\xb2\x93\x11\x0b\x03\xc0'
p4361
tp4362
Rp4363
sg47
I0
sg51
g0
(g1
g2
Ntp4364
Rp4365
(dp4366
g6
g4356
sg7
g8
(g9
(I0
tp4367
g11
tp4368
Rp4369
(I1
(I2
tp4370
g18
I00
S'\x00\x00\x00\x00>o\xfe\xbf\x00\x00\x00\x80]\xef\xd1\xbf'
p4371
tp4372
bsg23
Nsg24
(lp4373
(iMCTS
Action
p4374
(dp4375
g28
I0
sg29
I0
sg34
g4365
sg35
g8
(g9
(I0
tp4376
g11
tp4377
Rp4378
(I1
(I1
I1
tp4379
g70
I00
S'x\xc5\x93\xbf'
p4380
tp4381
bsg40
I0
sg41
g4378
sg43
I0
sg47
F1.0
sba(iMCTS
Action
p4382
(dp4383
g28
I1
sg29
I0
sg34
g4365
sg35
g4378
sg40
I0
sg41
g4378
sg43
I0
sg47
F1.0
sba(iMCTS
Action
p4384
(dp4385
g28
I2
sg29
I0
sg34
g4365
sg35
g4378
sg40
I0
sg41
g4378
sg43
I0
sg47
F1.0
sba(iMCTS
Action
p4386
(dp4387
g28
I3
sg29
I0
sg34
g4365
sg35
g4378
sg40
I0
sg41
g4378
sg43
I0
sg47
F1.0
sba(iMCTS
Action
p4388
(dp4389
g28
I4
sg29
I0
sg34
g4365
sg35
g4378
sg40
I0
sg41
g4378
sg43
I0
sg47
F1.0
sba(iMCTS
Action
p4390
(dp4391
g28
I5
sg29
I0
sg34
g4365
sg35
g4378
sg40
I0
sg41
g4378
sg43
I0
sg47
F1.0
sba(iMCTS
Action
p4392
(dp4393
g28
I6
sg29
I0
sg34
g4365
sg35
g4378
sg40
I0
sg41
g4378
sg43
I0
sg47
F1.0
sba(iMCTS
Action
p4394
(dp4395
g28
I7
sg29
I0
sg34
g4365
sg35
g4378
sg40
I0
sg41
g4378
sg43
I0
sg47
F1.0
sba(iMCTS
Action
p4396
(dp4397
g28
I8
sg29
I0
sg34
g4365
sg35
g4378
sg40
I0
sg41
g4378
sg43
I0
sg47
F1.0
sbasg121
g8
(g9
(I0
tp4398
g11
tp4399
Rp4400
(I1
(I9
tp4401
g70
I00
S'\xf3\xd1\xaa;\xb8\x90~?\xf0\xa6\xcc9\x1c&\x125i4\xb02\xf0n\x8e4x\xd1\xb91\x85\xa19.\xdb\x84\xae.'
p4402
tp4403
bsg128
g4378
sg40
I0
sg129
I00
sg130
(lp4404
sg132
F-1.2259408510982293
sg133
I9
sbsba(iMCTS
Action
p4405
(dp4406
g28
I5
sg29
I0
sg34
g736
sg35
g30
(g18
S'9\x8e\xa1\x94"O\x04\xc0'
p4407
tp4408
Rp4409
sg39
g4409
sg40
I1
sg41
F-2.5386401759913295
sg42
F0.0
sg43
g30
(g18
S'9\x8e\xa1\x94"O\x04\xc0'
p4410
tp4411
Rp4412
sg47
I0
sg51
g0
(g1
g2
Ntp4413
Rp4414
(dp4415
g6
g4405
sg7
g8
(g9
(I0
tp4416
g11
tp4417
Rp4418
(I1
(I2
tp4419
g18
I00
S'\x00\x00\x00\x00\x93\x84\xfd\xbf\x00\x00\x00\x001\xcd\xe0\xbf'
p4420
tp4421
bsg23
Nsg24
(lp4422
(iMCTS
Action
p4423
(dp4424
g28
I0
sg29
I0
sg34
g4414
sg35
g8
(g9
(I0
tp4425
g11
tp4426
Rp4427
(I1
(I1
I1
tp4428
g70
I00
S'p\x00\xa9\xbf'
p4429
tp4430
bsg40
I0
sg41
g4427
sg43
I0
sg47
F1.0
sba(iMCTS
Action
p4431
(dp4432
g28
I1
sg29
I0
sg34
g4414
sg35
g4427
sg40
I0
sg41
g4427
sg43
I0
sg47
F1.0
sba(iMCTS
Action
p4433
(dp4434
g28
I2
sg29
I0
sg34
g4414
sg35
g4427
sg40
I0
sg41
g4427
sg43
I0
sg47
F1.0
sba(iMCTS
Action
p4435
(dp4436
g28
I3
sg29
I0
sg34
g4414
sg35
g4427
sg40
I0
sg41
g4427
sg43
I0
sg47
F1.0
sba(iMCTS
Action
p4437
(dp4438
g28
I4
sg29
I0
sg34
g4414
sg35
g4427
sg40
I0
sg41
g4427
sg43
I0
sg47
F1.0
sba(iMCTS
Action
p4439
(dp4440
g28
I5
sg29
I0
sg34
g4414
sg35
g4427
sg40
I0
sg41
g4427
sg43
I0
sg47
F1.0
sba(iMCTS
Action
p4441
(dp4442
g28
I6
sg29
I0
sg34
g4414
sg35
g4427
sg40
I0
sg41
g4427
sg43
I0
sg47
F1.0
sba(iMCTS
Action
p4443
(dp4444
g28
I7
sg29
I0
sg34
g4414
sg35
g4427
sg40
I0
sg41
g4427
sg43
I0
sg47
F1.0
sba(iMCTS
Action
p4445
(dp4446
g28
I8
sg29
I0
sg34
g4414
sg35
g4427
sg40
I0
sg41
g4427
sg43
I0
sg47
F1.0
sbasg121
g8
(g9
(I0
tp4447
g11
tp4448
Rp4449
(I1
(I9
tp4450
g70
I00
S'1\x89\xad=.Cj?*\xa779\xfbF\xff5\xd2\x8f\xac3\xc29|5XvO3Q\x85\x14/!\x11\x9f/'
p4451
tp4452
bsg128
g4427
sg40
I0
sg129
I00
sg130
(lp4453
sg132
F-1.2183143245508998
sg133
I9
sbsba(iMCTS
Action
p4454
(dp4455
g28
I6
sg29
I0
sg34
g736
sg35
g30
(g18
S'\xfa\xefEU\xd7\x9b\x05\xc0'
p4456
tp4457
Rp4458
sg39
g4458
sg40
I1
sg41
F-2.701094309040852
sg42
F0.0
sg43
g30
(g18
S'\xfa\xefEU\xd7\x9b\x05\xc0'
p4459
tp4460
Rp4461
sg47
I0
sg51
g0
(g1
g2
Ntp4462
Rp4463
(dp4464
g6
g4454
sg7
g8
(g9
(I0
tp4465
g11
tp4466
Rp4467
(I1
(I2
tp4468
g18
I00
S'\x00\x00\x00\x00\x95A\x00\xc0\x00\x00\x00\x00\xf8J\xb4?'
p4469
tp4470
bsg23
Nsg24
(lp4471
(iMCTS
Action
p4472
(dp4473
g28
I0
sg29
I0
sg34
g4463
sg35
g8
(g9
(I0
tp4474
g11
tp4475
Rp4476
(I1
(I1
I1
tp4477
g70
I00
S'bK\xae\xbf'
p4478
tp4479
bsg40
I0
sg41
g4476
sg43
I0
sg47
F1.0
sba(iMCTS
Action
p4480
(dp4481
g28
I1
sg29
I0
sg34
g4463
sg35
g4476
sg40
I0
sg41
g4476
sg43
I0
sg47
F1.0
sba(iMCTS
Action
p4482
(dp4483
g28
I2
sg29
I0
sg34
g4463
sg35
g4476
sg40
I0
sg41
g4476
sg43
I0
sg47
F1.0
sba(iMCTS
Action
p4484
(dp4485
g28
I3
sg29
I0
sg34
g4463
sg35
g4476
sg40
I0
sg41
g4476
sg43
I0
sg47
F1.0
sba(iMCTS
Action
p4486
(dp4487
g28
I4
sg29
I0
sg34
g4463
sg35
g4476
sg40
I0
sg41
g4476
sg43
I0
sg47
F1.0
sba(iMCTS
Action
p4488
(dp4489
g28
I5
sg29
I0
sg34
g4463
sg35
g4476
sg40
I0
sg41
g4476
sg43
I0
sg47
F1.0
sba(iMCTS
Action
p4490
(dp4491
g28
I6
sg29
I0
sg34
g4463
sg35
g4476
sg40
I0
sg41
g4476
sg43
I0
sg47
F1.0
sba(iMCTS
Action
p4492
(dp4493
g28
I7
sg29
I0
sg34
g4463
sg35
g4476
sg40
I0
sg41
g4476
sg43
I0
sg47
F1.0
sba(iMCTS
Action
p4494
(dp4495
g28
I8
sg29
I0
sg34
g4463
sg35
g4476
sg40
I0
sg41
g4476
sg43
I0
sg47
F1.0
sbasg121
g8
(g9
(I0
tp4496
g11
tp4497
Rp4498
(I1
(I9
tp4499
g70
I00
S'\x01J\x019i\xd7~?\x07>\x90;\x1b\x85\x874-\x8a#2R\n\xfe3\xf1s*0&.\xaf-\xd7n\xea.'
p4500
tp4501
bsg128
g4476
sg40
I0
sg129
I00
sg130
(lp4502
sg132
F-1.339418808171101
sg133
I9
sbsba(iMCTS
Action
p4503
(dp4504
g28
I7
sg29
I0
sg34
g736
sg35
g30
(g18
S'\xbd\xd0a\xfc$3\x05\xc0'
p4505
tp4506
Rp4507
sg39
g4507
sg40
I1
sg41
F-2.649972888693894
sg42
F0.0
sg43
g30
(g18
S'\xbd\xd0a\xfc$3\x05\xc0'
p4508
tp4509
Rp4510
sg47
I0
sg51
g0
(g1
g2
Ntp4511
Rp4512
(dp4513
g6
g4503
sg7
g8
(g9
(I0
tp4514
g11
tp4515
Rp4516
(I1
(I2
tp4517
g18
I00
S'\x00\x00\x00@\xd1&\x00\xc0\x00\x00\x00\x00\x18\xc1\xa2?'
p4518
tp4519
bsg23
Nsg24
(lp4520
(iMCTS
Action
p4521
(dp4522
g28
I0
sg29
I0
sg34
g4512
sg35
g8
(g9
(I0
tp4523
g11
tp4524
Rp4525
(I1
(I1
I1
tp4526
g70
I00
S'\xd6x\xa9\xbf'
p4527
tp4528
bsg40
I0
sg41
g4525
sg43
I0
sg47
F1.0
sba(iMCTS
Action
p4529
(dp4530
g28
I1
sg29
I0
sg34
g4512
sg35
g4525
sg40
I0
sg41
g4525
sg43
I0
sg47
F1.0
sba(iMCTS
Action
p4531
(dp4532
g28
I2
sg29
I0
sg34
g4512
sg35
g4525
sg40
I0
sg41
g4525
sg43
I0
sg47
F1.0
sba(iMCTS
Action
p4533
(dp4534
g28
I3
sg29
I0
sg34
g4512
sg35
g4525
sg40
I0
sg41
g4525
sg43
I0
sg47
F1.0
sba(iMCTS
Action
p4535
(dp4536
g28
I4
sg29
I0
sg34
g4512
sg35
g4525
sg40
I0
sg41
g4525
sg43
I0
sg47
F1.0
sba(iMCTS
Action
p4537
(dp4538
g28
I5
sg29
I0
sg34
g4512
sg35
g4525
sg40
I0
sg41
g4525
sg43
I0
sg47
F1.0
sba(iMCTS
Action
p4539
(dp4540
g28
I6
sg29
I0
sg34
g4512
sg35
g4525
sg40
I0
sg41
g4525
sg43
I0
sg47
F1.0
sba(iMCTS
Action
p4541
(dp4542
g28
I7
sg29
I0
sg34
g4512
sg35
g4525
sg40
I0
sg41
g4525
sg43
I0
sg47
F1.0
sba(iMCTS
Action
p4543
(dp4544
g28
I8
sg29
I0
sg34
g4512
sg35
g4525
sg40
I0
sg41
g4525
sg43
I0
sg47
F1.0
sbasg121
g8
(g9
(I0
tp4545
g11
tp4546
Rp4547
(I1
(I9
tp4548
g70
I00
S'\x0f\xefA9\xd6+\x7f?\xf3\x04H;\xa3\x99\x894\x96\xbe$2\x0e\xd5\x014\xc0\xd4M0 \xd3\xb3-\xdf\xc3\xc5.'
p4549
tp4550
bsg128
g4525
sg40
I0
sg129
I00
sg130
(lp4551
sg132
F-1.3259727685309302
sg133
I9
sbsba(iMCTS
Action
p4552
(dp4553
g28
I8
sg29
I0
sg34
g736
sg35
g30
(g18
S'?\x80\x0b\xcf\x82\x1f\x04\xc0'
p4554
tp4555
Rp4556
sg39
g4556
sg40
I1
sg41
F-2.515386216677171
sg42
F0.0
sg43
g30
(g18
S'?\x80\x0b\xcf\x82\x1f\x04\xc0'
p4557
tp4558
Rp4559
sg47
I0
sg51
g0
(g1
g2
Ntp4560
Rp4561
(dp4562
g6
g4552
sg7
g8
(g9
(I0
tp4563
g11
tp4564
Rp4565
(I1
(I2
tp4566
g18
I00
S'\x00\x00\x00\x00\x00\xad\xff\xbf\x00\x00\x00\x00p\t\xa2\xbf'
p4567
tp4568
bsg23
Nsg24
(lp4569
(iMCTS
Action
p4570
(dp4571
g28
I0
sg29
I0
sg34
g4561
sg35
g8
(g9
(I0
tp4572
g11
tp4573
Rp4574
(I1
(I1
I1
tp4575
g70
I00
S'\x1a\x10\x9d\xbf'
p4576
tp4577
bsg40
I0
sg41
g4574
sg43
I0
sg47
F1.0
sba(iMCTS
Action
p4578
(dp4579
g28
I1
sg29
I0
sg34
g4561
sg35
g4574
sg40
I0
sg41
g4574
sg43
I0
sg47
F1.0
sba(iMCTS
Action
p4580
(dp4581
g28
I2
sg29
I0
sg34
g4561
sg35
g4574
sg40
I0
sg41
g4574
sg43
I0
sg47
F1.0
sba(iMCTS
Action
p4582
(dp4583
g28
I3
sg29
I0
sg34
g4561
sg35
g4574
sg40
I0
sg41
g4574
sg43
I0
sg47
F1.0
sba(iMCTS
Action
p4584
(dp4585
g28
I4
sg29
I0
sg34
g4561
sg35
g4574
sg40
I0
sg41
g4574
sg43
I0
sg47
F1.0
sba(iMCTS
Action
p4586
(dp4587
g28
I5
sg29
I0
sg34
g4561
sg35
g4574
sg40
I0
sg41
g4574
sg43
I0
sg47
F1.0
sba(iMCTS
Action
p4588
(dp4589
g28
I6
sg29
I0
sg34
g4561
sg35
g4574
sg40
I0
sg41
g4574
sg43
I0
sg47
F1.0
sba(iMCTS
Action
p4590
(dp4591
g28
I7
sg29
I0
sg34
g4561
sg35
g4574
sg40
I0
sg41
g4574
sg43
I0
sg47
F1.0
sba(iMCTS
Action
p4592
(dp4593
g28
I8
sg29
I0
sg34
g4561
sg35
g4574
sg40
I0
sg41
g4574
sg43
I0
sg47
F1.0
sbasg121
g8
(g9
(I0
tp4594
g11
tp4595
Rp4596
(I1
(I9
tp4597
g70
I00
S'\xe6D\xc89\xab{\x7f?\xa3\x8c\xd6:\xad\x0b\x904\xdd\xb7)2\x9f\x12\t4\x9eY\x910U\x1f\xc4-8\xff\x96.'
p4598
tp4599
bsg128
g4574
sg40
I0
sg129
I00
sg130
(lp4600
sg132
F-1.288332335985643
sg133
I9
sbsbasg121
g8
(g9
(I0
tp4601
g11
tp4602
Rp4603
(I1
(I9
tp4604
g70
I00
S'H\x13\x13<K\x9a}?\x82\x8a\xca9\x9c\xaag5\xfee\x1b3\xdb\xf8\xe64\xb4\xdc02\xfb.\xbd.\xcd\xb2&/'
p4605
tp4606
bsg128
g8
(g9
(I0
tp4607
g11
tp4608
Rp4609
(I1
(I1
I1
tp4610
g70
I00
S'<\xd2\xec\xbf'
p4611
tp4612
bsg40
I65
sg129
I00
sg130
(lp4613
g4556
ag30
(g18
S':\xc8\xb0r\xdb\x10\xfd\xbf'
p4614
tp4615
Rp4616
ag30
(g18
S'F-\x9b\x07"\xef\xfb\xbf'
p4617
tp4618
Rp4619
ag30
(g18
S"n'\\\xc9\x99\x95\x02\xc0"
p4620
tp4621
Rp4622
ag30
(g18
S'\xa9\x8ePh\xf0\x0f\xfd\xbf'
p4623
tp4624
Rp4625
ag30
(g18
S'\x14-\x0f\xb2\x9c\x97\x00\xc0'
p4626
tp4627
Rp4628
ag30
(g18
S'\xf2\xc7\x11\xf6\xf43\x05\xc0'
p4629
tp4630
Rp4631
ag30
(g18
S'#\xdeS"yb\xfc\xbf'
p4632
tp4633
Rp4634
ag30
(g18
S'#\xc9\xf71I/\xfd\xbf'
p4635
tp4636
Rp4637
ag30
(g18
S'\xdd\xda\x96\xb1\xc8\xcc\xfc\xbf'
p4638
tp4639
Rp4640
ag30
(g18
S'\x81\xa2\n\xd6^\xf9\xfd\xbf'
p4641
tp4642
Rp4643
ag30
(g18
S'\x8e\x1aJ\xec\xa3\x1f\xfd\xbf'
p4644
tp4645
Rp4646
ag30
(g18
S'KS|g\x07+\x00\xc0'
p4647
tp4648
Rp4649
ag30
(g18
S'q\x15jFP\x0e\xfc\xbf'
p4650
tp4651
Rp4652
ag30
(g18
S'\xee\xa1\t\x93\xb3\xfe\xfd\xbf'
p4653
tp4654
Rp4655
ag30
(g18
S'\xa5\xa2S\xa86~\x00\xc0'
p4656
tp4657
Rp4658
ag30
(g18
S'P_\x83EU\x8c\x00\xc0'
p4659
tp4660
Rp4661
ag30
(g18
S'\xc0t\xd5\xde\xe1H\xfd\xbf'
p4662
tp4663
Rp4664
ag30
(g18
S'\xedJ\xa8\t|<\xfe\xbf'
p4665
tp4666
Rp4667
ag30
(g18
S'~\x0e\xbc\xb9\x92%\x01\xc0'
p4668
tp4669
Rp4670
ag30
(g18
S'\xae\x8d\xbf\x870\xbf\xfc\xbf'
p4671
tp4672
Rp4673
ag30
(g18
S'\xbe\xfe!\x95\x8b\xf9\xfe\xbf'
p4674
tp4675
Rp4676
ag30
(g18
S'\xf3w^D\xed\x10\x00\xc0'
p4677
tp4678
Rp4679
ag30
(g18
S'x\xe4\x7fy\x0c\xb3\x02\xc0'
p4680
tp4681
Rp4682
ag30
(g18
S'\x18\x08\x03\x97\xc8\xd4\xfd\xbf'
p4683
tp4684
Rp4685
ag30
(g18
S'b\x19\x81\x1b\xb4\x91\x01\xc0'
p4686
tp4687
Rp4688
ag30
(g18
S'2c>\xd2\xec\xaa\xfe\xbf'
p4689
tp4690
Rp4691
ag30
(g18
S'\xae\xe4\xf9\xf6O\xeb\x02\xc0'
p4692
tp4693
Rp4694
ag4262
ag4311
ag4409
ag30
(g18
S'\x03n\xdb\xddp\xe2\x02\xc0'
p4695
tp4696
Rp4697
ag4360
ag4458
ag4507
ag30
(g18
S'\xf4\xe84^B\xe7\xff\xbf'
p4698
tp4699
Rp4700
ag30
(g18
S"~\x15\x89\xc3'u\xfc\xbf"
p4701
tp4702
Rp4703
ag30
(g18
S'xz\xc3\r\x10\xf9\xfc\xbf'
p4704
tp4705
Rp4706
ag30
(g18
S'-\xcbqP\x90\xcf\xff\xbf'
p4707
tp4708
Rp4709
ag30
(g18
S'\x8d\x07\x98nAE\x02\xc0'
p4710
tp4711
Rp4712
ag30
(g18
S'\x97l+\xfd\xaf\x00\xfd\xbf'
p4713
tp4714
Rp4715
ag30
(g18
S'R\xf6O|\xc6\x14\xff\xbf'
p4716
tp4717
Rp4718
ag30
(g18
S'\x1e\xf4\x02\xb9\xf7\xd4\xfd\xbf'
p4719
tp4720
Rp4721
ag30
(g18
S'\x0c\xe4\xa9-\x0f\x1e\xfe\xbf'
p4722
tp4723
Rp4724
ag30
(g18
S't\xad\xaa\xa7\xfc\xa5\xfe\xbf'
p4725
tp4726
Rp4727
ag30
(g18
S'8!&\x05\x9cr\xfc\xbf'
p4728
tp4729
Rp4730
ag30
(g18
S'\xae\x12:\xc4pH\x00\xc0'
p4731
tp4732
Rp4733
ag30
(g18
S'\xfa\xbeV\x9e\xb5\x83\xfc\xbf'
p4734
tp4735
Rp4736
ag30
(g18
S'\\\xd1N8\xd2\xae\xff\xbf'
p4737
tp4738
Rp4739
ag30
(g18
S'\xc9\x9cr\xb3G\xc4\xfd\xbf'
p4740
tp4741
Rp4742
ag30
(g18
S'\xd8\xd9"\xd1\xed{\x00\xc0'
p4743
tp4744
Rp4745
ag30
(g18
S'\xca\xdc+y\xab\xa6\xfc\xbf'
p4746
tp4747
Rp4748
ag30
(g18
S'\xb3\xbc\xc6v\x05\xfc\xfd\xbf'
p4749
tp4750
Rp4751
ag30
(g18
S'\x98\x82\xb0\xe9\xdb_\xfd\xbf'
p4752
tp4753
Rp4754
ag30
(g18
S'/;\xa4v\x99L\xff\xbf'
p4755
tp4756
Rp4757
ag30
(g18
S'_VL^\xa3\x00\xfd\xbf'
p4758
tp4759
Rp4760
ag30
(g18
S'i0\x07zF\x11\xfe\xbf'
p4761
tp4762
Rp4763
ag30
(g18
S'\x0f\xaa\x96\x997D\xfe\xbf'
p4764
tp4765
Rp4766
ag30
(g18
S',&\xb6e\xd1\xfb\xfd\xbf'
p4767
tp4768
Rp4769
ag30
(g18
S'\x03\xf4\xa2\xde\xc0\x88\xfd\xbf'
p4770
tp4771
Rp4772
ag30
(g18
S'\x1a\xc2\xf6\x0b\xc1r\xff\xbf'
p4773
tp4774
Rp4775
ag30
(g18
S'\xd4\xac\x05\x08S\xa5\x00\xc0'
p4776
tp4777
Rp4778
ag30
(g18
S']\xb3\xcd\xa3\xb0\x88\xfc\xbf'
p4779
tp4780
Rp4781
ag30
(g18
S'\x88\x15\xe9\xdbV\x08\xfd\xbf'
p4782
tp4783
Rp4784
ag30
(g18
S'0\x0en\xabD\x96\xfc\xbf'
p4785
tp4786
Rp4787
asg132
F-1.4478760958555923
sg133
I9
sbsba(iMCTS
Action
p4788
(dp4789
g28
I2
sg29
I0
sg34
g457
sg35
g30
(g18
S'\xe7\x8aQ&\xf1O\x10\xc0'
p4790
tp4791
Rp4792
sg39
g4792
sg40
I1
sg41
F-4.078068350531544
sg42
F0.0
sg43
g30
(g18
S'\xe7\x8aQ&\xf1O\x10\xc0'
p4793
tp4794
Rp4795
sg47
I0
sg51
g0
(g1
g2
Ntp4796
Rp4797
(dp4798
g6
g4788
sg7
g8
(g9
(I0
tp4799
g11
tp4800
Rp4801
(I1
(I2
tp4802
g18
I00
S'\x00\x00\x00\x80g\xc2\xfe\xbf\x00\x00\x00@\xb5\x18\xf0\xbf'
p4803
tp4804
bsg23
Nsg24
(lp4805
(iMCTS
Action
p4806
(dp4807
g28
I0
sg29
I0
sg34
g4797
sg35
g8
(g9
(I0
tp4808
g11
tp4809
Rp4810
(I1
(I1
I1
tp4811
g70
I00
S"\x08\x06'\xc0"
p4812
tp4813
bsg40
I0
sg41
g4810
sg43
I0
sg47
F1.0
sba(iMCTS
Action
p4814
(dp4815
g28
I1
sg29
I0
sg34
g4797
sg35
g4810
sg40
I0
sg41
g4810
sg43
I0
sg47
F1.0
sba(iMCTS
Action
p4816
(dp4817
g28
I2
sg29
I0
sg34
g4797
sg35
g4810
sg40
I0
sg41
g4810
sg43
I0
sg47
F1.0
sba(iMCTS
Action
p4818
(dp4819
g28
I3
sg29
I0
sg34
g4797
sg35
g4810
sg40
I0
sg41
g4810
sg43
I0
sg47
F1.0
sba(iMCTS
Action
p4820
(dp4821
g28
I4
sg29
I0
sg34
g4797
sg35
g4810
sg40
I0
sg41
g4810
sg43
I0
sg47
F1.0
sba(iMCTS
Action
p4822
(dp4823
g28
I5
sg29
I0
sg34
g4797
sg35
g4810
sg40
I0
sg41
g4810
sg43
I0
sg47
F1.0
sba(iMCTS
Action
p4824
(dp4825
g28
I6
sg29
I0
sg34
g4797
sg35
g4810
sg40
I0
sg41
g4810
sg43
I0
sg47
F1.0
sba(iMCTS
Action
p4826
(dp4827
g28
I7
sg29
I0
sg34
g4797
sg35
g4810
sg40
I0
sg41
g4810
sg43
I0
sg47
F1.0
sba(iMCTS
Action
p4828
(dp4829
g28
I8
sg29
I0
sg34
g4797
sg35
g4810
sg40
I0
sg41
g4810
sg43
I0
sg47
F1.0
sbasg121
g8
(g9
(I0
tp4830
g11
tp4831
Rp4832
(I1
(I9
tp4833
g70
I00
S'^\xaeo?{\x82\x82=A\xb4^7yv\x876\xc7i\x954\x07r\x0e6\x8a?$5\x96v\xc3/h\x0f%1'
p4834
tp4835
bsg128
g4810
sg40
I0
sg129
I00
sg130
(lp4836
sg132
F-1.4683252322454114
sg133
I9
sbsba(iMCTS
Action
p4837
(dp4838
g28
I3
sg29
I0
sg34
g457
sg35
g30
(g18
S'\xd5\x13\x07SwY\x10\xc0'
p4839
tp4840
Rp4841
sg39
g4841
sg40
I1
sg41
F-4.087369248682951
sg42
F0.0
sg43
g30
(g18
S'\xd5\x13\x07SwY\x10\xc0'
p4842
tp4843
Rp4844
sg47
I0
sg51
g0
(g1
g2
Ntp4845
Rp4846
(dp4847
g6
g4837
sg7
g8
(g9
(I0
tp4848
g11
tp4849
Rp4850
(I1
(I2
tp4851
g18
I00
S'\x00\x00\x00 z \x03\xc0\x00\x00\x00\x00`\xfc\x8f\xbf'
p4852
tp4853
bsg23
Nsg24
(lp4854
(iMCTS
Action
p4855
(dp4856
g28
I0
sg29
I0
sg34
g4846
sg35
g8
(g9
(I0
tp4857
g11
tp4858
Rp4859
(I1
(I1
I1
tp4860
g70
I00
S'\x1ai\x19\xc0'
p4861
tp4862
bsg40
I0
sg41
g4859
sg43
I0
sg47
F1.0
sba(iMCTS
Action
p4863
(dp4864
g28
I1
sg29
I0
sg34
g4846
sg35
g4859
sg40
I0
sg41
g4859
sg43
I0
sg47
F1.0
sba(iMCTS
Action
p4865
(dp4866
g28
I2
sg29
I0
sg34
g4846
sg35
g4859
sg40
I0
sg41
g4859
sg43
I0
sg47
F1.0
sba(iMCTS
Action
p4867
(dp4868
g28
I3
sg29
I0
sg34
g4846
sg35
g4859
sg40
I0
sg41
g4859
sg43
I0
sg47
F1.0
sba(iMCTS
Action
p4869
(dp4870
g28
I4
sg29
I0
sg34
g4846
sg35
g4859
sg40
I0
sg41
g4859
sg43
I0
sg47
F1.0
sba(iMCTS
Action
p4871
(dp4872
g28
I5
sg29
I0
sg34
g4846
sg35
g4859
sg40
I0
sg41
g4859
sg43
I0
sg47
F1.0
sba(iMCTS
Action
p4873
(dp4874
g28
I6
sg29
I0
sg34
g4846
sg35
g4859
sg40
I0
sg41
g4859
sg43
I0
sg47
F1.0
sba(iMCTS
Action
p4875
(dp4876
g28
I7
sg29
I0
sg34
g4846
sg35
g4859
sg40
I0
sg41
g4859
sg43
I0
sg47
F1.0
sba(iMCTS
Action
p4877
(dp4878
g28
I8
sg29
I0
sg34
g4846
sg35
g4859
sg40
I0
sg41
g4859
sg43
I0
sg47
F1.0
sbasg121
g8
(g9
(I0
tp4879
g11
tp4880
Rp4881
(I1
(I9
tp4882
g70
I00
S'\x1c,\xb39S*\x7f?t;?;\xa8\xea\x085\xf7\xb1\xd52\x9a?\x8a4\xd0\xc2.1\x96Dz._\xfd\x93/'
p4883
tp4884
bsg128
g4859
sg40
I0
sg129
I00
sg130
(lp4885
sg132
F-1.6903293583936447
sg133
I9
sbsba(iMCTS
Action
p4886
(dp4887
g28
I4
sg29
I0
sg34
g457
sg35
g30
(g18
S'\xaf\x01H\xe5@\xfc\x10\xc0'
p4888
tp4889
Rp4890
sg39
g4890
sg40
I1
sg41
F-4.246341307182248
sg42
F0.0
sg43
g30
(g18
S'\xaf\x01H\xe5@\xfc\x10\xc0'
p4891
tp4892
Rp4893
sg47
I0
sg51
g0
(g1
g2
Ntp4894
Rp4895
(dp4896
g6
g4886
sg7
g8
(g9
(I0
tp4897
g11
tp4898
Rp4899
(I1
(I2
tp4900
g18
I00
S'\x00\x00\x00@\xad\x06\x03\xc0\x00\x00\x00\x00\xeb\xea\xd1\xbf'
p4901
tp4902
bsg23
Nsg24
(lp4903
(iMCTS
Action
p4904
(dp4905
g28
I0
sg29
I0
sg34
g4895
sg35
g8
(g9
(I0
tp4906
g11
tp4907
Rp4908
(I1
(I1
I1
tp4909
g70
I00
S'\x08\xbb#\xc0'
p4910
tp4911
bsg40
I0
sg41
g4908
sg43
I0
sg47
F1.0
sba(iMCTS
Action
p4912
(dp4913
g28
I1
sg29
I0
sg34
g4895
sg35
g4908
sg40
I0
sg41
g4908
sg43
I0
sg47
F1.0
sba(iMCTS
Action
p4914
(dp4915
g28
I2
sg29
I0
sg34
g4895
sg35
g4908
sg40
I0
sg41
g4908
sg43
I0
sg47
F1.0
sba(iMCTS
Action
p4916
(dp4917
g28
I3
sg29
I0
sg34
g4895
sg35
g4908
sg40
I0
sg41
g4908
sg43
I0
sg47
F1.0
sba(iMCTS
Action
p4918
(dp4919
g28
I4
sg29
I0
sg34
g4895
sg35
g4908
sg40
I0
sg41
g4908
sg43
I0
sg47
F1.0
sba(iMCTS
Action
p4920
(dp4921
g28
I5
sg29
I0
sg34
g4895
sg35
g4908
sg40
I0
sg41
g4908
sg43
I0
sg47
F1.0
sba(iMCTS
Action
p4922
(dp4923
g28
I6
sg29
I0
sg34
g4895
sg35
g4908
sg40
I0
sg41
g4908
sg43
I0
sg47
F1.0
sba(iMCTS
Action
p4924
(dp4925
g28
I7
sg29
I0
sg34
g4895
sg35
g4908
sg40
I0
sg41
g4908
sg43
I0
sg47
F1.0
sba(iMCTS
Action
p4926
(dp4927
g28
I8
sg29
I0
sg34
g4895
sg35
g4908
sg40
I0
sg41
g4908
sg43
I0
sg47
F1.0
sbasg121
g8
(g9
(I0
tp4928
g11
tp4929
Rp4930
(I1
(I9
tp4931
g70
I00
S'n\xf0n;\x1f\xe1~?\x17]?:\xba\xc9y5y\x07C3\x8fR\xff4\xe9\x9b-2\xd0\xc1\x1b/\xd1\xce\x96/'
p4932
tp4933
bsg128
g4908
sg40
I0
sg129
I00
sg130
(lp4934
sg132
F-1.688050825614865
sg133
I9
sbsba(iMCTS
Action
p4935
(dp4936
g28
I5
sg29
I0
sg34
g457
sg35
g30
(g18
S'\xa2\x8fE\xf5\xe3\x88\x11\xc0'
p4937
tp4938
Rp4939
sg39
g4939
sg40
I1
sg41
F-4.383682091112776
sg42
F0.0
sg43
g30
(g18
S'\xa2\x8fE\xf5\xe3\x88\x11\xc0'
p4940
tp4941
Rp4942
sg47
I0
sg51
g0
(g1
g2
Ntp4943
Rp4944
(dp4945
g6
g4935
sg7
g8
(g9
(I0
tp4946
g11
tp4947
Rp4948
(I1
(I2
tp4949
g18
I00
S'\x00\x00\x00@\xa0\xc2\x02\xc0\x00\x00\x00@\x88 \xde\xbf'
p4950
tp4951
bsg23
Nsg24
(lp4952
(iMCTS
Action
p4953
(dp4954
g28
I0
sg29
I0
sg34
g4944
sg35
g8
(g9
(I0
tp4955
g11
tp4956
Rp4957
(I1
(I1
I1
tp4958
g70
I00
S'\x9e\xe2,\xc0'
p4959
tp4960
bsg40
I0
sg41
g4957
sg43
I0
sg47
F1.0
sba(iMCTS
Action
p4961
(dp4962
g28
I1
sg29
I0
sg34
g4944
sg35
g4957
sg40
I0
sg41
g4957
sg43
I0
sg47
F1.0
sba(iMCTS
Action
p4963
(dp4964
g28
I2
sg29
I0
sg34
g4944
sg35
g4957
sg40
I0
sg41
g4957
sg43
I0
sg47
F1.0
sba(iMCTS
Action
p4965
(dp4966
g28
I3
sg29
I0
sg34
g4944
sg35
g4957
sg40
I0
sg41
g4957
sg43
I0
sg47
F1.0
sba(iMCTS
Action
p4967
(dp4968
g28
I4
sg29
I0
sg34
g4944
sg35
g4957
sg40
I0
sg41
g4957
sg43
I0
sg47
F1.0
sba(iMCTS
Action
p4969
(dp4970
g28
I5
sg29
I0
sg34
g4944
sg35
g4957
sg40
I0
sg41
g4957
sg43
I0
sg47
F1.0
sba(iMCTS
Action
p4971
(dp4972
g28
I6
sg29
I0
sg34
g4944
sg35
g4957
sg40
I0
sg41
g4957
sg43
I0
sg47
F1.0
sba(iMCTS
Action
p4973
(dp4974
g28
I7
sg29
I0
sg34
g4944
sg35
g4957
sg40
I0
sg41
g4957
sg43
I0
sg47
F1.0
sba(iMCTS
Action
p4975
(dp4976
g28
I8
sg29
I0
sg34
g4944
sg35
g4957
sg40
I0
sg41
g4957
sg43
I0
sg47
F1.0
sbasg121
g8
(g9
(I0
tp4977
g11
tp4978
Rp4979
(I1
(I9
tp4980
g70
I00
S'\xb5\xe1\xb8<\xa8\x1fz?\x8a\xcd\xc89(\xa1\xfe5\x7f\xe0\xca3\xbe\xbf\x805N\xf4\r3lq\xab/\xef\t\x060'
p4981
tp4982
bsg128
g4957
sg40
I0
sg129
I00
sg130
(lp4983
sg132
F-1.6823504756647778
sg133
I9
sbsba(iMCTS
Action
p4984
(dp4985
g28
I6
sg29
I0
sg34
g457
sg35
g30
(g18
S'\xfc\xf8\xe1u\xbeX\x12\xc0'
p4986
tp4987
Rp4988
sg39
g4988
sg40
I1
sg41
F-4.586664049069665
sg42
F0.0
sg43
g30
(g18
S'\xfc\xf8\xe1u\xbeX\x12\xc0'
p4989
tp4990
Rp4991
sg47
I0
sg51
g0
(g1
g2
Ntp4992
Rp4993
(dp4994
g6
g4984
sg7
g8
(g9
(I0
tp4995
g11
tp4996
Rp4997
(I1
(I2
tp4998
g18
I00
S'\x00\x00\x00\xe0\xe4\x05\x04\xc0\x00\x00\x00\x00\xe6\xf4\xc4?'
p4999
tp5000
bsg23
Nsg24
(lp5001
(iMCTS
Action
p5002
(dp5003
g28
I0
sg29
I0
sg34
g4993
sg35
g8
(g9
(I0
tp5004
g11
tp5005
Rp5006
(I1
(I1
I1
tp5007
g70
I00
S'352\xc0'
p5008
tp5009
bsg40
I0
sg41
g5006
sg43
I0
sg47
F1.0
sba(iMCTS
Action
p5010
(dp5011
g28
I1
sg29
I0
sg34
g4993
sg35
g5006
sg40
I0
sg41
g5006
sg43
I0
sg47
F1.0
sba(iMCTS
Action
p5012
(dp5013
g28
I2
sg29
I0
sg34
g4993
sg35
g5006
sg40
I0
sg41
g5006
sg43
I0
sg47
F1.0
sba(iMCTS
Action
p5014
(dp5015
g28
I3
sg29
I0
sg34
g4993
sg35
g5006
sg40
I0
sg41
g5006
sg43
I0
sg47
F1.0
sba(iMCTS
Action
p5016
(dp5017
g28
I4
sg29
I0
sg34
g4993
sg35
g5006
sg40
I0
sg41
g5006
sg43
I0
sg47
F1.0
sba(iMCTS
Action
p5018
(dp5019
g28
I5
sg29
I0
sg34
g4993
sg35
g5006
sg40
I0
sg41
g5006
sg43
I0
sg47
F1.0
sba(iMCTS
Action
p5020
(dp5021
g28
I6
sg29
I0
sg34
g4993
sg35
g5006
sg40
I0
sg41
g5006
sg43
I0
sg47
F1.0
sba(iMCTS
Action
p5022
(dp5023
g28
I7
sg29
I0
sg34
g4993
sg35
g5006
sg40
I0
sg41
g5006
sg43
I0
sg47
F1.0
sba(iMCTS
Action
p5024
(dp5025
g28
I8
sg29
I0
sg34
g4993
sg35
g5006
sg40
I0
sg41
g5006
sg43
I0
sg47
F1.0
sbasg121
g8
(g9
(I0
tp5026
g11
tp5027
Rp5028
(I1
(I9
tp5029
g70
I00
S'\xed\xce\x9a8]\xc9|?\x82oL<%\x81\x175\nr\x033\xaeX\x974\x8c\x04\xee0\x8d{_.\xb7\xeaC0'
p5030
tp5031
bsg128
g5006
sg40
I0
sg129
I00
sg130
(lp5032
sg132
F-1.802167026440881
sg133
I9
sbsba(iMCTS
Action
p5033
(dp5034
g28
I7
sg29
I0
sg34
g457
sg35
g30
(g18
S'\xf2\xf7mf\\\xac\x11\xc0'
p5035
tp5036
Rp5037
sg39
g5037
sg40
I1
sg41
F-4.4183212284678905
sg42
F0.0
sg43
g30
(g18
S'\xf2\xf7mf\\\xac\x11\xc0'
p5038
tp5039
Rp5040
sg47
I0
sg51
g0
(g1
g2
Ntp5041
Rp5042
(dp5043
g6
g5033
sg7
g8
(g9
(I0
tp5044
g11
tp5045
Rp5046
(I1
(I2
tp5047
g18
I00
S'\x00\x00\x00\x80@\xbf\x03\xc0\x00\x00\x00\x00Qe\xc2?'
p5048
tp5049
bsg23
Nsg24
(lp5050
(iMCTS
Action
p5051
(dp5052
g28
I0
sg29
I0
sg34
g5042
sg35
g8
(g9
(I0
tp5053
g11
tp5054
Rp5055
(I1
(I1
I1
tp5056
g70
I00
S'j\x9d)\xc0'
p5057
tp5058
bsg40
I0
sg41
g5055
sg43
I0
sg47
F1.0
sba(iMCTS
Action
p5059
(dp5060
g28
I1
sg29
I0
sg34
g5042
sg35
g5055
sg40
I0
sg41
g5055
sg43
I0
sg47
F1.0
sba(iMCTS
Action
p5061
(dp5062
g28
I2
sg29
I0
sg34
g5042
sg35
g5055
sg40
I0
sg41
g5055
sg43
I0
sg47
F1.0
sba(iMCTS
Action
p5063
(dp5064
g28
I3
sg29
I0
sg34
g5042
sg35
g5055
sg40
I0
sg41
g5055
sg43
I0
sg47
F1.0
sba(iMCTS
Action
p5065
(dp5066
g28
I4
sg29
I0
sg34
g5042
sg35
g5055
sg40
I0
sg41
g5055
sg43
I0
sg47
F1.0
sba(iMCTS
Action
p5067
(dp5068
g28
I5
sg29
I0
sg34
g5042
sg35
g5055
sg40
I0
sg41
g5055
sg43
I0
sg47
F1.0
sba(iMCTS
Action
p5069
(dp5070
g28
I6
sg29
I0
sg34
g5042
sg35
g5055
sg40
I0
sg41
g5055
sg43
I0
sg47
F1.0
sba(iMCTS
Action
p5071
(dp5072
g28
I7
sg29
I0
sg34
g5042
sg35
g5055
sg40
I0
sg41
g5055
sg43
I0
sg47
F1.0
sba(iMCTS
Action
p5073
(dp5074
g28
I8
sg29
I0
sg34
g5042
sg35
g5055
sg40
I0
sg41
g5055
sg43
I0
sg47
F1.0
sbasg121
g8
(g9
(I0
tp5075
g11
tp5076
Rp5077
(I1
(I9
tp5078
g70
I00
S'~\x86\xb28;K}?<\xc9+<\xa7f\r5\xec[\xed2\xc3\xc9\x8c4\x0f\x8c\xe00\xc4\xf9O.\x10\x1c 0'
p5079
tp5080
bsg128
g5055
sg40
I0
sg129
I00
sg130
(lp5081
sg132
F-1.7680884365672562
sg133
I9
sbsba(iMCTS
Action
p5082
(dp5083
g28
I8
sg29
I0
sg34
g457
sg35
g30
(g18
S'o\xae\x11\xb1\x8d\xe4\x11\xc0'
p5084
tp5085
Rp5086
sg39
g5086
sg40
I1
sg41
F-4.473196760849176
sg42
F0.0
sg43
g30
(g18
S'o\xae\x11\xb1\x8d\xe4\x11\xc0'
p5087
tp5088
Rp5089
sg47
I0
sg51
g0
(g1
g2
Ntp5090
Rp5091
(dp5092
g6
g5082
sg7
g8
(g9
(I0
tp5093
g11
tp5094
Rp5095
(I1
(I2
tp5096
g18
I00
S'\x00\x00\x00\xc0|\xd4\x03\xc0\x00\x00\x00\x00\xa8\xff\xab?'
p5097
tp5098
bsg23
Nsg24
(lp5099
(iMCTS
Action
p5100
(dp5101
g28
I0
sg29
I0
sg34
g5091
sg35
g8
(g9
(I0
tp5102
g11
tp5103
Rp5104
(I1
(I1
I1
tp5105
g70
I00
S'\xca\x87,\xc0'
p5106
tp5107
bsg40
I0
sg41
g5104
sg43
I0
sg47
F1.0
sba(iMCTS
Action
p5108
(dp5109
g28
I1
sg29
I0
sg34
g5091
sg35
g5104
sg40
I0
sg41
g5104
sg43
I0
sg47
F1.0
sba(iMCTS
Action
p5110
(dp5111
g28
I2
sg29
I0
sg34
g5091
sg35
g5104
sg40
I0
sg41
g5104
sg43
I0
sg47
F1.0
sba(iMCTS
Action
p5112
(dp5113
g28
I3
sg29
I0
sg34
g5091
sg35
g5104
sg40
I0
sg41
g5104
sg43
I0
sg47
F1.0
sba(iMCTS
Action
p5114
(dp5115
g28
I4
sg29
I0
sg34
g5091
sg35
g5104
sg40
I0
sg41
g5104
sg43
I0
sg47
F1.0
sba(iMCTS
Action
p5116
(dp5117
g28
I5
sg29
I0
sg34
g5091
sg35
g5104
sg40
I0
sg41
g5104
sg43
I0
sg47
F1.0
sba(iMCTS
Action
p5118
(dp5119
g28
I6
sg29
I0
sg34
g5091
sg35
g5104
sg40
I0
sg41
g5104
sg43
I0
sg47
F1.0
sba(iMCTS
Action
p5120
(dp5121
g28
I7
sg29
I0
sg34
g5091
sg35
g5104
sg40
I0
sg41
g5104
sg43
I0
sg47
F1.0
sba(iMCTS
Action
p5122
(dp5123
g28
I8
sg29
I0
sg34
g5091
sg35
g5104
sg40
I0
sg41
g5104
sg43
I0
sg47
F1.0
sbasg121
g8
(g9
(I0
tp5124
g11
tp5125
Rp5126
(I1
(I9
tp5127
g70
I00
S',\xd1G9i\x90~?:\x86\xb1;;\xe1\x1c5\x06\x0e\x043\x83v\x9e4\x87\xfb,1\xc19\x8b.\xb3{\x010'
p5128
tp5129
bsg128
g5104
sg40
I0
sg129
I00
sg130
(lp5130
sg132
F-1.7774088542024478
sg133
I9
sbsbasg121
g8
(g9
(I0
tp5131
g11
tp5132
Rp5133
(I1
(I9
tp5134
g70
I00
S'\x11\xca\xfb;\xfb\xd6}?e\xf5D:w\x91\x026\xfbf\xf53\xadI\x885v\xeb\x0c3D\xb5\x000\x1fsn0'
p5135
tp5136
bsg128
g8
(g9
(I0
tp5137
g11
tp5138
Rp5139
(I1
(I1
I1
tp5140
g70
I00
S'\x01lW\xc0'
p5141
tp5142
bsg40
I78
sg129
I00
sg130
(lp5143
g30
(g18
S'#\xe1\x02\xd0cb\n\xc0'
p5144
tp5145
Rp5146
ag30
(g18
S'ba\x0e\xdf\xc2\xb4\x0f\xc0'
p5147
tp5148
Rp5149
ag30
(g18
S',\xfa\x9c\xe4\x11/\t\xc0'
p5150
tp5151
Rp5152
ag30
(g18
S'\xb3S\xbd(;\\\n\xc0'
p5153
tp5154
Rp5155
ag30
(g18
S'\xfb\xad\xf0\xad\x9b\xdd\x0e\xc0'
p5156
tp5157
Rp5158
ag4792
ag30
(g18
S'@E[\xc9\xad\x1d\n\xc0'
p5159
tp5160
Rp5161
ag30
(g18
S'\xc6w\xd0\x13\xd1\x8c\t\xc0'
p5162
tp5163
Rp5164
ag30
(g18
S'\x91\x08_\xd9\xd9*\x0e\xc0'
p5165
tp5166
Rp5167
ag30
(g18
S'x(+D8\x1d\n\xc0'
p5168
tp5169
Rp5170
ag30
(g18
S'7\x0e\x12\xc2\xdc,\x0c\xc0'
p5171
tp5172
Rp5173
ag30
(g18
S'\x8aT\n\x83\x9ad\x10\xc0'
p5174
tp5175
Rp5176
ag4841
ag4939
ag4890
ag30
(g18
S'4\xd0,\xa1|\xc6\t\xc0'
p5177
tp5178
Rp5179
ag30
(g18
S'\xb4\xc5\xfe\xa8\xe4,\n\xc0'
p5180
tp5181
Rp5182
ag30
(g18
S'\x92N\xceh\xa4\xfb\t\xc0'
p5183
tp5184
Rp5185
ag30
(g18
S'd2\x08{\xef\x91\n\xc0'
p5186
tp5187
Rp5188
ag30
(g18
S"j\xee'\x06\x12%\n\xc0"
p5189
tp5190
Rp5191
ag30
(g18
S'n4\x7fwG\xc0\x0b\xc0'
p5192
tp5193
Rp5194
ag30
(g18
S'\xdc\xeb73h\x9c\t\xc0'
p5195
tp5196
Rp5197
ag30
(g18
S'\x1a\xb2\x87\xd9\x99\x94\n\xc0'
p5198
tp5199
Rp5200
ag30
(g18
S'\xc8\x83V\xb8v\x13\x0c\xc0'
p5201
tp5202
Rp5203
ag30
(g18
S's@\x86U\x95!\x0c\xc0'
p5204
tp5205
Rp5206
ag30
(g18
S'\x83\x9bm\xff\xb09\n\xc0'
p5207
tp5208
Rp5209
ag30
(g18
S'\x9a\x06\xd7\x14~\xb3\n\xc0'
p5210
tp5211
Rp5212
ag30
(g18
S'\xa1\xef\xbe\xc9\xd2\xba\x0c\xc0'
p5213
tp5214
Rp5215
ag30
(g18
S'\xfa\xa7\xe2S\xd8\xf4\t\xc0'
p5216
tp5217
Rp5218
ag30
(g18
S'\x82\xe0\x93\xda\x05\x12\x0b\xc0'
p5219
tp5220
Rp5221
ag30
(g18
S'\x16YaT-\xa6\x0b\xc0'
p5222
tp5223
Rp5224
ag30
(g18
S'\x9b\xc5\x82\x89LH\x0e\xc0'
p5225
tp5226
Rp5227
ag30
(g18
S'/e\x84[\xa4\x7f\n\xc0'
p5228
tp5229
Rp5230
ag30
(g18
S'\x85\xfa\x83+\xf4&\r\xc0'
p5231
tp5232
Rp5233
ag30
(g18
S'\xbc\x12"y\xb6\xea\n\xc0'
p5234
tp5235
Rp5236
ag30
(g18
S'\xd1\xc5\xfc\x06\x90\x80\x0e\xc0'
p5237
tp5238
Rp5239
ag30
(g18
S'pz\xf7\x07\x03\x07\x0f\xc0'
p5240
tp5241
Rp5242
ag30
(g18
S'm\x9ecK\xebg\x0e\xc0'
p5243
tp5244
Rp5245
ag4988
ag5086
ag30
(g18
S'\\o\xa4\xa4b\xe4\x0f\xc0'
p5246
tp5247
Rp5248
ag5037
ag30
(g18
S'&O\xde\xed\xb0w\x0e\xc0'
p5249
tp5250
Rp5251
ag30
(g18
S'\x02B\xb5\xa3Q\xa0\x0e\xc0'
p5252
tp5253
Rp5254
ag30
(g18
S'\x8eh\xa4\xb2\x8b\x98\x10\xc0'
p5255
tp5256
Rp5257
ag30
(g18
S'\xf0X2\x862d\x10\xc0'
p5258
tp5259
Rp5260
ag30
(g18
S'kU\x8e#\xf49\x0b\xc0'
p5261
tp5262
Rp5263
ag30
(g18
S'\xa8\xa2.W\xbff\x0f\xc0'
p5264
tp5265
Rp5266
ag30
(g18
S'\x9dU\x1d?\xe1\x88\x0b\xc0'
p5267
tp5268
Rp5269
ag30
(g18
S'\xe2k\xc7\xf1\xd3\xcf\t\xc0'
p5270
tp5271
Rp5272
ag30
(g18
S'_\x9e\xe4\x16\xc8\x11\n\xc0'
p5273
tp5274
Rp5275
ag30
(g18
S'\xba\xc6;8\x08}\x0b\xc0'
p5276
tp5277
Rp5278
ag30
(g18
S'\xb0\xe8\x9a~\x81\xda\r\xc0'
p5279
tp5280
Rp5281
ag30
(g18
S'n\x97\x98\x0e\x98\x15\n\xc0'
p5282
tp5283
Rp5284
ag30
(g18
S'L\xdc*N\xa3\x1f\x0b\xc0'
p5285
tp5286
Rp5287
ag30
(g18
S'2[\x84\xec\xbb\x7f\n\xc0'
p5288
tp5289
Rp5290
ag30
(g18
S')\xd3\xd7\xa6G\xa4\n\xc0'
p5291
tp5292
Rp5293
ag30
(g18
S'\xdd7\xd8c>\xe8\n\xc0'
p5294
tp5295
Rp5296
ag30
(g18
S'\xbf\xf1\x95\x12\x8e\xce\t\xc0'
p5297
tp5298
Rp5299
ag30
(g18
S'\xd1\xf3<\xd4\xb0\xdd\x0b\xc0'
p5300
tp5301
Rp5302
ag30
(g18
S'\xa0@.\xdf\x1a\xd7\t\xc0'
p5303
tp5304
Rp5305
ag30
(g18
S'\xd1I*,\xa9l\x0b\xc0'
p5306
tp5307
Rp5308
ag30
(g18
S'\x88/\xbc\xe9cw\n\xc0'
p5309
tp5310
Rp5311
ag30
(g18
S'\xfb\xba%\xe1-\x11\x0c\xc0'
p5312
tp5313
Rp5314
ag30
(g18
S'\x88\xcf\x98\xcc\x95\xe8\t\xc0'
p5315
tp5316
Rp5317
ag30
(g18
S'|?f\xcbB\x93\n\xc0'
p5318
tp5319
Rp5320
ag30
(g18
S'o"\xdb\x04.E\n\xc0'
p5321
tp5322
Rp5323
ag30
(g18
S'\xba\xfeT\xcb\x8c;\x0b\xc0'
p5324
tp5325
Rp5326
ag30
(g18
S'R\x0c)\xbf\x91\x15\n\xc0'
p5327
tp5328
Rp5329
ag30
(g18
S'Xy\x06M\xe3\x9d\n\xc0'
p5330
tp5331
Rp5332
ag30
(g18
S'*6\xce\xdc[\xb7\n\xc0'
p5333
tp5334
Rp5335
ag30
(g18
S'9\xf4\xdd\xc2(\x93\n\xc0'
p5336
tp5337
Rp5338
ag30
(g18
S'$[T\x7f\xa0Y\n\xc0'
p5339
tp5340
Rp5341
ag30
(g18
S'0B\xfe\x95\xa0N\x0b\xc0'
p5342
tp5343
Rp5344
ag30
(g18
S'\xf7\x8d\x08\x18\x93:\x0c\xc0'
p5345
tp5346
Rp5347
ag30
(g18
S'\xd2\xba\xe9a\x98\xd9\t\xc0'
p5348
tp5349
Rp5350
ag30
(g18
S'\xe7k\xf7}k\x19\n\xc0'
p5351
tp5352
Rp5353
ag30
(g18
S';\xe8\xb9eb\xe0\t\xc0'
p5354
tp5355
Rp5356
asg132
F-1.9014922214967007
sg133
I9
sbsba(iMCTS
Action
p5357
(dp5358
g28
I2
sg29
I0
sg34
g166
sg35
g30
(g18
S'\xee@\xcd9\xfc\xa9\x17\xc0'
p5359
tp5360
Rp5361
sg39
g5361
sg40
I1
sg41
F-5.916001227524459
sg42
F0.0
sg43
g30
(g18
S'\xee@\xcd9\xfc\xa9\x17\xc0'
p5362
tp5363
Rp5364
sg47
I0
sg51
g0
(g1
g2
Ntp5365
Rp5366
(dp5367
g6
g5357
sg7
g8
(g9
(I0
tp5368
g11
tp5369
Rp5370
(I1
(I2
tp5371
g18
I00
S'\x00\x00\x00@x\xa9\x02\xc0\x00\x00\x00\x00y\xf1\xf2\xbf'
p5372
tp5373
bsg23
Nsg24
(lp5374
(iMCTS
Action
p5375
(dp5376
g28
I0
sg29
I0
sg34
g5366
sg35
g8
(g9
(I0
tp5377
g11
tp5378
Rp5379
(I1
(I1
I1
tp5380
g70
I00
S'\x10g\x80\xc0'
p5381
tp5382
bsg40
I0
sg41
g5379
sg43
I0
sg47
F1.0
sba(iMCTS
Action
p5383
(dp5384
g28
I1
sg29
I0
sg34
g5366
sg35
g5379
sg40
I0
sg41
g5379
sg43
I0
sg47
F1.0
sba(iMCTS
Action
p5385
(dp5386
g28
I2
sg29
I0
sg34
g5366
sg35
g5379
sg40
I0
sg41
g5379
sg43
I0
sg47
F1.0
sba(iMCTS
Action
p5387
(dp5388
g28
I3
sg29
I0
sg34
g5366
sg35
g5379
sg40
I0
sg41
g5379
sg43
I0
sg47
F1.0
sba(iMCTS
Action
p5389
(dp5390
g28
I4
sg29
I0
sg34
g5366
sg35
g5379
sg40
I0
sg41
g5379
sg43
I0
sg47
F1.0
sba(iMCTS
Action
p5391
(dp5392
g28
I5
sg29
I0
sg34
g5366
sg35
g5379
sg40
I0
sg41
g5379
sg43
I0
sg47
F1.0
sba(iMCTS
Action
p5393
(dp5394
g28
I6
sg29
I0
sg34
g5366
sg35
g5379
sg40
I0
sg41
g5379
sg43
I0
sg47
F1.0
sba(iMCTS
Action
p5395
(dp5396
g28
I7
sg29
I0
sg34
g5366
sg35
g5379
sg40
I0
sg41
g5379
sg43
I0
sg47
F1.0
sba(iMCTS
Action
p5397
(dp5398
g28
I8
sg29
I0
sg34
g5366
sg35
g5379
sg40
I0
sg41
g5379
sg43
I0
sg47
F1.0
sbasg121
g8
(g9
(I0
tp5399
g11
tp5400
Rp5401
(I1
(I9
tp5402
g70
I00
S'L\\g?\xe5\x0b\xc5=\xb1\xc7\xab7c\xd9\x007\xd1\xb955%\xa0\x816&\xab\x985\xc3\x87\xcc0f\x0c"2'
p5403
tp5404
bsg128
g5379
sg40
I0
sg129
I00
sg130
(lp5405
sg132
F-1.9034203559424285
sg133
I9
sbsba(iMCTS
Action
p5406
(dp5407
g28
I3
sg29
I0
sg34
g166
sg35
g30
(g18
S".\xb7'\x85M(\x1a\xc0"
p5408
tp5409
Rp5410
sg39
g5410
sg40
I1
sg41
F-6.539358215855641
sg42
F0.0
sg43
g30
(g18
S".\xb7'\x85M(\x1a\xc0"
p5411
tp5412
Rp5413
sg47
I0
sg51
g0
(g1
g2
Ntp5414
Rp5415
(dp5416
g6
g5406
sg7
g8
(g9
(I0
tp5417
g11
tp5418
Rp5419
(I1
(I2
tp5420
g18
I00
S'\x00\x00\x00`\xd7\xe3\x06\xc0\x00\x00\x00\x00\x92D\xb7?'
p5421
tp5422
bsg23
Nsg24
(lp5423
(iMCTS
Action
p5424
(dp5425
g28
I0
sg29
I0
sg34
g5415
sg35
g8
(g9
(I0
tp5426
g11
tp5427
Rp5428
(I1
(I1
I1
tp5429
g70
I00
S'\x1dY\x8c\xc0'
p5430
tp5431
bsg40
I0
sg41
g5428
sg43
I0
sg47
F1.0
sba(iMCTS
Action
p5432
(dp5433
g28
I1
sg29
I0
sg34
g5415
sg35
g5428
sg40
I0
sg41
g5428
sg43
I0
sg47
F1.0
sba(iMCTS
Action
p5434
(dp5435
g28
I2
sg29
I0
sg34
g5415
sg35
g5428
sg40
I0
sg41
g5428
sg43
I0
sg47
F1.0
sba(iMCTS
Action
p5436
(dp5437
g28
I3
sg29
I0
sg34
g5415
sg35
g5428
sg40
I0
sg41
g5428
sg43
I0
sg47
F1.0
sba(iMCTS
Action
p5438
(dp5439
g28
I4
sg29
I0
sg34
g5415
sg35
g5428
sg40
I0
sg41
g5428
sg43
I0
sg47
F1.0
sba(iMCTS
Action
p5440
(dp5441
g28
I5
sg29
I0
sg34
g5415
sg35
g5428
sg40
I0
sg41
g5428
sg43
I0
sg47
F1.0
sba(iMCTS
Action
p5442
(dp5443
g28
I6
sg29
I0
sg34
g5415
sg35
g5428
sg40
I0
sg41
g5428
sg43
I0
sg47
F1.0
sba(iMCTS
Action
p5444
(dp5445
g28
I7
sg29
I0
sg34
g5415
sg35
g5428
sg40
I0
sg41
g5428
sg43
I0
sg47
F1.0
sba(iMCTS
Action
p5446
(dp5447
g28
I8
sg29
I0
sg34
g5415
sg35
g5428
sg40
I0
sg41
g5428
sg43
I0
sg47
F1.0
sbasg121
g8
(g9
(I0
tp5448
g11
tp5449
Rp5450
(I1
(I9
tp5451
g70
I00
S'\xb7\xd9V9\xb8\xb0}?\xe1k\x10<\xa5\xc4\xc85\xe3\xf1\xfa3\xde!^5\t3_2qd\x86/R/*1'
p5452
tp5453
bsg128
g5428
sg40
I0
sg129
I00
sg130
(lp5454
sg132
F-2.153480129765553
sg133
I9
sbsba(iMCTS
Action
p5455
(dp5456
g28
I4
sg29
I0
sg34
g166
sg35
g30
(g18
S'4{/vH\xa1\x19\xc0'
p5457
tp5458
Rp5459
sg39
g5459
sg40
I1
sg41
F-6.407502981803919
sg42
F0.0
sg43
g30
(g18
S'4{/vH\xa1\x19\xc0'
p5460
tp5461
Rp5462
sg47
I0
sg51
g0
(g1
g2
Ntp5463
Rp5464
(dp5465
g6
g5455
sg7
g8
(g9
(I0
tp5466
g11
tp5467
Rp5468
(I1
(I2
tp5469
g18
I00
S'\x00\x00\x00\xc0\xbb\x94\x06\xc0\x00\x00\x00\x00\x0f2\xd3\xbf'
p5470
tp5471
bsg23
Nsg24
(lp5472
(iMCTS
Action
p5473
(dp5474
g28
I0
sg29
I0
sg34
g5464
sg35
g8
(g9
(I0
tp5475
g11
tp5476
Rp5477
(I1
(I1
I1
tp5478
g70
I00
S'\x0e\x05\x89\xc0'
p5479
tp5480
bsg40
I0
sg41
g5477
sg43
I0
sg47
F1.0
sba(iMCTS
Action
p5481
(dp5482
g28
I1
sg29
I0
sg34
g5464
sg35
g5477
sg40
I0
sg41
g5477
sg43
I0
sg47
F1.0
sba(iMCTS
Action
p5483
(dp5484
g28
I2
sg29
I0
sg34
g5464
sg35
g5477
sg40
I0
sg41
g5477
sg43
I0
sg47
F1.0
sba(iMCTS
Action
p5485
(dp5486
g28
I3
sg29
I0
sg34
g5464
sg35
g5477
sg40
I0
sg41
g5477
sg43
I0
sg47
F1.0
sba(iMCTS
Action
p5487
(dp5488
g28
I4
sg29
I0
sg34
g5464
sg35
g5477
sg40
I0
sg41
g5477
sg43
I0
sg47
F1.0
sba(iMCTS
Action
p5489
(dp5490
g28
I5
sg29
I0
sg34
g5464
sg35
g5477
sg40
I0
sg41
g5477
sg43
I0
sg47
F1.0
sba(iMCTS
Action
p5491
(dp5492
g28
I6
sg29
I0
sg34
g5464
sg35
g5477
sg40
I0
sg41
g5477
sg43
I0
sg47
F1.0
sba(iMCTS
Action
p5493
(dp5494
g28
I7
sg29
I0
sg34
g5464
sg35
g5477
sg40
I0
sg41
g5477
sg43
I0
sg47
F1.0
sba(iMCTS
Action
p5495
(dp5496
g28
I8
sg29
I0
sg34
g5464
sg35
g5477
sg40
I0
sg41
g5477
sg43
I0
sg47
F1.0
sbasg121
g8
(g9
(I0
tp5497
g11
tp5498
Rp5499
(I1
(I9
tp5500
g70
I00
S'\x12\xe7\xa7;\xafd~?\xf2n\x96:\x1a?:6\xb0n\\4\xc71\xcd5\xc4$\x893]\x1d\x800\x10Y\x0b1'
p5501
tp5502
bsg128
g5477
sg40
I0
sg129
I00
sg130
(lp5503
sg132
F-2.1256359545212047
sg133
I9
sbsba(iMCTS
Action
p5504
(dp5505
g28
I5
sg29
I0
sg34
g166
sg35
g30
(g18
S'J\x07\xaaI)4\x1a\xc0'
p5506
tp5507
Rp5508
sg39
g5508
sg40
I1
sg41
F-6.5509387502696175
sg42
F0.0
sg43
g30
(g18
S'J\x07\xaaI)4\x1a\xc0'
p5509
tp5510
Rp5511
sg47
I0
sg51
g0
(g1
g2
Ntp5512
Rp5513
(dp5514
g6
g5504
sg7
g8
(g9
(I0
tp5515
g11
tp5516
Rp5517
(I1
(I2
tp5518
g18
I00
S'\x00\x00\x00 \xa0_\x06\xc0\x00\x00\x00\x80\xa6\x19\xe2\xbf'
p5519
tp5520
bsg23
Nsg24
(lp5521
(iMCTS
Action
p5522
(dp5523
g28
I0
sg29
I0
sg34
g5513
sg35
g8
(g9
(I0
tp5524
g11
tp5525
Rp5526
(I1
(I1
I1
tp5527
g70
I00
S'Y@\x8d\xc0'
p5528
tp5529
bsg40
I0
sg41
g5526
sg43
I0
sg47
F1.0
sba(iMCTS
Action
p5530
(dp5531
g28
I1
sg29
I0
sg34
g5513
sg35
g5526
sg40
I0
sg41
g5526
sg43
I0
sg47
F1.0
sba(iMCTS
Action
p5532
(dp5533
g28
I2
sg29
I0
sg34
g5513
sg35
g5526
sg40
I0
sg41
g5526
sg43
I0
sg47
F1.0
sba(iMCTS
Action
p5534
(dp5535
g28
I3
sg29
I0
sg34
g5513
sg35
g5526
sg40
I0
sg41
g5526
sg43
I0
sg47
F1.0
sba(iMCTS
Action
p5536
(dp5537
g28
I4
sg29
I0
sg34
g5513
sg35
g5526
sg40
I0
sg41
g5526
sg43
I0
sg47
F1.0
sba(iMCTS
Action
p5538
(dp5539
g28
I5
sg29
I0
sg34
g5513
sg35
g5526
sg40
I0
sg41
g5526
sg43
I0
sg47
F1.0
sba(iMCTS
Action
p5540
(dp5541
g28
I6
sg29
I0
sg34
g5513
sg35
g5526
sg40
I0
sg41
g5526
sg43
I0
sg47
F1.0
sba(iMCTS
Action
p5542
(dp5543
g28
I7
sg29
I0
sg34
g5513
sg35
g5526
sg40
I0
sg41
g5526
sg43
I0
sg47
F1.0
sba(iMCTS
Action
p5544
(dp5545
g28
I8
sg29
I0
sg34
g5513
sg35
g5526
sg40
I0
sg41
g5526
sg43
I0
sg47
F1.0
sbasg121
g8
(g9
(I0
tp5546
g11
tp5547
Rp5548
(I1
(I9
tp5549
g70
I00
S'\\\xf62=\x88\xabt?C\x88\x11:\x9b\x9d\xd56\xeat\x025\x00\x14c6\xc4;\x854\x13\xa3I1F\x99\xa41'
p5550
tp5551
bsg128
g5526
sg40
I0
sg129
I00
sg130
(lp5552
sg132
F-2.136833811762538
sg133
I9
sbsba(iMCTS
Action
p5553
(dp5554
g28
I6
sg29
I0
sg34
g166
sg35
g30
(g18
S'\xe4\xfa\xa3\x81\xed~\x1c\xc0'
p5555
tp5556
Rp5557
sg39
g5557
sg40
I1
sg41
F-7.123952890046642
sg42
F0.0
sg43
g30
(g18
S'\xe4\xfa\xa3\x81\xed~\x1c\xc0'
p5558
tp5559
Rp5560
sg47
I0
sg51
g0
(g1
g2
Ntp5561
Rp5562
(dp5563
g6
g5553
sg7
g8
(g9
(I0
tp5564
g11
tp5565
Rp5566
(I1
(I2
tp5567
g18
I00
S'\x00\x00\x00\xa0\x80\xa9\x07\xc0\x00\x00\x00\x00\xf6\xe7\xca?'
p5568
tp5569
bsg23
Nsg24
(lp5570
(iMCTS
Action
p5571
(dp5572
g28
I0
sg29
I0
sg34
g5562
sg35
g8
(g9
(I0
tp5573
g11
tp5574
Rp5575
(I1
(I1
I1
tp5576
g70
I00
S'3\xe6\x9b\xc0'
p5577
tp5578
bsg40
I0
sg41
g5575
sg43
I0
sg47
F1.0
sba(iMCTS
Action
p5579
(dp5580
g28
I1
sg29
I0
sg34
g5562
sg35
g5575
sg40
I0
sg41
g5575
sg43
I0
sg47
F1.0
sba(iMCTS
Action
p5581
(dp5582
g28
I2
sg29
I0
sg34
g5562
sg35
g5575
sg40
I0
sg41
g5575
sg43
I0
sg47
F1.0
sba(iMCTS
Action
p5583
(dp5584
g28
I3
sg29
I0
sg34
g5562
sg35
g5575
sg40
I0
sg41
g5575
sg43
I0
sg47
F1.0
sba(iMCTS
Action
p5585
(dp5586
g28
I4
sg29
I0
sg34
g5562
sg35
g5575
sg40
I0
sg41
g5575
sg43
I0
sg47
F1.0
sba(iMCTS
Action
p5587
(dp5588
g28
I5
sg29
I0
sg34
g5562
sg35
g5575
sg40
I0
sg41
g5575
sg43
I0
sg47
F1.0
sba(iMCTS
Action
p5589
(dp5590
g28
I6
sg29
I0
sg34
g5562
sg35
g5575
sg40
I0
sg41
g5575
sg43
I0
sg47
F1.0
sba(iMCTS
Action
p5591
(dp5592
g28
I7
sg29
I0
sg34
g5562
sg35
g5575
sg40
I0
sg41
g5575
sg43
I0
sg47
F1.0
sba(iMCTS
Action
p5593
(dp5594
g28
I8
sg29
I0
sg34
g5562
sg35
g5575
sg40
I0
sg41
g5575
sg43
I0
sg47
F1.0
sbasg121
g8
(g9
(I0
tp5595
g11
tp5596
Rp5597
(I1
(I9
tp5598
g70
I00
S'S\x1f\xb08C\x94z?&\xc1\xac<x=\xef5\x9c\x0e)4A\xf4\x8557bm2z\x10\x88/j\x15\xb31'
p5599
tp5600
bsg128
g5575
sg40
I0
sg129
I00
sg130
(lp5601
sg132
F-2.252102399476573
sg133
I9
sbsba(iMCTS
Action
p5602
(dp5603
g28
I7
sg29
I0
sg34
g166
sg35
g30
(g18
S'\xa4\xad\xa8\x03sQ\x1c\xc0'
p5604
tp5605
Rp5606
sg39
g5606
sg40
I1
sg41
F-7.079540307207399
sg42
F0.0
sg43
g30
(g18
S'\xa4\xad\xa8\x03sQ\x1c\xc0'
p5607
tp5608
Rp5609
sg47
I0
sg51
g0
(g1
g2
Ntp5610
Rp5611
(dp5612
g6
g5602
sg7
g8
(g9
(I0
tp5613
g11
tp5614
Rp5615
(I1
(I2
tp5616
g18
I00
S'\x00\x00\x00\xe0\xf8\x98\x07\xc0\x00\x00\x00\x00\x8fJ\xcb?'
p5617
tp5618
bsg23
Nsg24
(lp5619
(iMCTS
Action
p5620
(dp5621
g28
I0
sg29
I0
sg34
g5611
sg35
g8
(g9
(I0
tp5622
g11
tp5623
Rp5624
(I1
(I1
I1
tp5625
g70
I00
S'\xb0\xba\x9a\xc0'
p5626
tp5627
bsg40
I0
sg41
g5624
sg43
I0
sg47
F1.0
sba(iMCTS
Action
p5628
(dp5629
g28
I1
sg29
I0
sg34
g5611
sg35
g5624
sg40
I0
sg41
g5624
sg43
I0
sg47
F1.0
sba(iMCTS
Action
p5630
(dp5631
g28
I2
sg29
I0
sg34
g5611
sg35
g5624
sg40
I0
sg41
g5624
sg43
I0
sg47
F1.0
sba(iMCTS
Action
p5632
(dp5633
g28
I3
sg29
I0
sg34
g5611
sg35
g5624
sg40
I0
sg41
g5624
sg43
I0
sg47
F1.0
sba(iMCTS
Action
p5634
(dp5635
g28
I4
sg29
I0
sg34
g5611
sg35
g5624
sg40
I0
sg41
g5624
sg43
I0
sg47
F1.0
sba(iMCTS
Action
p5636
(dp5637
g28
I5
sg29
I0
sg34
g5611
sg35
g5624
sg40
I0
sg41
g5624
sg43
I0
sg47
F1.0
sba(iMCTS
Action
p5638
(dp5639
g28
I6
sg29
I0
sg34
g5611
sg35
g5624
sg40
I0
sg41
g5624
sg43
I0
sg47
F1.0
sba(iMCTS
Action
p5640
(dp5641
g28
I7
sg29
I0
sg34
g5611
sg35
g5624
sg40
I0
sg41
g5624
sg43
I0
sg47
F1.0
sba(iMCTS
Action
p5642
(dp5643
g28
I8
sg29
I0
sg34
g5611
sg35
g5624
sg40
I0
sg41
g5624
sg43
I0
sg47
F1.0
sbasg121
g8
(g9
(I0
tp5644
g11
tp5645
Rp5646
(I1
(I9
tp5647
g70
I00
S'f\x06\xaa8\xfa{z?\xba\xd0\xaf<\xcfa\xe95Ux#4\x84]\x825\x01\x8e`29\x9b\x82/\xf1\xfd\xad1'
p5648
tp5649
bsg128
g5624
sg40
I0
sg129
I00
sg130
(lp5650
sg132
F-2.244251305742555
sg133
I9
sbsba(iMCTS
Action
p5651
(dp5652
g28
I8
sg29
I0
sg34
g166
sg35
g30
(g18
S'3s>\xcd\x9d\xbf\x1b\xc0'
p5653
tp5654
Rp5655
sg39
g5655
sg40
I1
sg41
F-6.937125403343816
sg42
F0.0
sg43
g30
(g18
S'3s>\xcd\x9d\xbf\x1b\xc0'
p5656
tp5657
Rp5658
sg47
I0
sg51
g0
(g1
g2
Ntp5659
Rp5660
(dp5661
g6
g5651
sg7
g8
(g9
(I0
tp5662
g11
tp5663
Rp5664
(I1
(I2
tp5665
g18
I00
S'\x00\x00\x00\x00\xa4u\x07\xc0\x00\x00\x00\x004[\xb3?'
p5666
tp5667
bsg23
Nsg24
(lp5668
(iMCTS
Action
p5669
(dp5670
g28
I0
sg29
I0
sg34
g5660
sg35
g8
(g9
(I0
tp5671
g11
tp5672
Rp5673
(I1
(I1
I1
tp5674
g70
I00
S'\xe9\xcb\x96\xc0'
p5675
tp5676
bsg40
I0
sg41
g5673
sg43
I0
sg47
F1.0
sba(iMCTS
Action
p5677
(dp5678
g28
I1
sg29
I0
sg34
g5660
sg35
g5673
sg40
I0
sg41
g5673
sg43
I0
sg47
F1.0
sba(iMCTS
Action
p5679
(dp5680
g28
I2
sg29
I0
sg34
g5660
sg35
g5673
sg40
I0
sg41
g5673
sg43
I0
sg47
F1.0
sba(iMCTS
Action
p5681
(dp5682
g28
I3
sg29
I0
sg34
g5660
sg35
g5673
sg40
I0
sg41
g5673
sg43
I0
sg47
F1.0
sba(iMCTS
Action
p5683
(dp5684
g28
I4
sg29
I0
sg34
g5660
sg35
g5673
sg40
I0
sg41
g5673
sg43
I0
sg47
F1.0
sba(iMCTS
Action
p5685
(dp5686
g28
I5
sg29
I0
sg34
g5660
sg35
g5673
sg40
I0
sg41
g5673
sg43
I0
sg47
F1.0
sba(iMCTS
Action
p5687
(dp5688
g28
I6
sg29
I0
sg34
g5660
sg35
g5673
sg40
I0
sg41
g5673
sg43
I0
sg47
F1.0
sba(iMCTS
Action
p5689
(dp5690
g28
I7
sg29
I0
sg34
g5660
sg35
g5673
sg40
I0
sg41
g5673
sg43
I0
sg47
F1.0
sba(iMCTS
Action
p5691
(dp5692
g28
I8
sg29
I0
sg34
g5660
sg35
g5673
sg40
I0
sg41
g5673
sg43
I0
sg47
F1.0
sbasg121
g8
(g9
(I0
tp5693
g11
tp5694
Rp5695
(I1
(I9
tp5696
g70
I00
S"\xc9I\x859\x1d\xd6}?>A\x06<\x0fH\xf75'K'4\x8f\xa0\x8b5\x9a\xfc\xad2Cw\xbc/\x15\xd0a1"
p5697
tp5698
bsg128
g5673
sg40
I0
sg129
I00
sg130
(lp5699
sg132
F-2.224734026848455
sg133
I9
sbsbasg121
g8
(g9
(I0
tp5700
g11
tp5701
Rp5702
(I1
(I9
tp5703
g70
I00
S'\xa0w%<\xd1\x1e}?lE\x95:un\xc96\xcd\xde\x195iZj6Z\x0f\x944.P^1\xf1e\xe71'
p5704
tp5705
bsg128
g8
(g9
(I0
tp5706
g11
tp5707
Rp5708
(I1
(I1
I1
tp5709
g70
I00
S'\xe5x\xac\xc0'
p5710
tp5711
bsg40
I91
sg129
I00
sg130
(lp5712
g30
(g18
S'\xf6\xb4\xe3\xd6\xe0\x11\x15\xc0'
p5713
tp5714
Rp5715
ag30
(g18
S'\x87%\xe5\xaeR\xcc\x14\xc0'
p5716
tp5717
Rp5718
ag30
(g18
S'\xa6\xe5j6\x82u\x17\xc0'
p5719
tp5720
Rp5721
ag30
(g18
S'\x0c22\xb9\xa92\x14\xc0'
p5722
tp5723
Rp5724
ag30
(g18
S'\xcf^B[>\xc9\x14\xc0'
p5725
tp5726
Rp5727
ag30
(g18
S'\xf3\x0b\xdc\x9d\xee\t\x17\xc0'
p5728
tp5729
Rp5730
ag30
(g18
S'\xdc?5\xed\x11\xeb\x17\xc0'
p5731
tp5732
Rp5733
ag30
(g18
S'V\xd2r\xca\x9a\xba\x14\xc0'
p5734
tp5735
Rp5736
ag30
(g18
S'\xa0\xe7;\xe5\xcf\x8e\x14\xc0'
p5737
tp5738
Rp5739
ag30
(g18
S'\xbe`\x1a\xda4"\x18\xc0'
p5740
tp5741
Rp5742
ag30
(g18
S'\x96W\x91\xab\xf7\xa9\x14\xc0'
p5743
tp5744
Rp5745
ag30
(g18
S'\xd8\xf0\xcbP\x89a\x14\xc0'
p5746
tp5747
Rp5748
ag30
(g18
S'>9\x93\xb3\x8d\xb0\x16\xc0'
p5749
tp5750
Rp5751
ag30
(g18
S'2I\xf9\xe8\xbc\xa9\x14\xc0'
p5752
tp5753
Rp5754
ag30
(g18
S"\x11\xbc\xec'\x8f\xb1\x15\xc0"
p5755
tp5756
Rp5757
ag30
(g18
S'\x80\t\xeeI\xbb\xff\x17\xc0'
p5758
tp5759
Rp5760
ag30
(g18
S'\xca\xc8\xea\x19\x98\xf4\x17\xc0'
p5761
tp5762
Rp5763
ag5361
ag30
(g18
S'\x98D)\xbc\x04$\x19\xc0'
p5764
tp5765
Rp5766
ag5410
ag5508
ag5459
ag5557
ag5655
ag5606
ag30
(g18
S'\xa4\xb6+\xaca\x97\x18\xc0'
p5767
tp5768
Rp5769
ag30
(g18
S'\x83\xb8\xb7.\xcf\xb7\x14\xc0'
p5770
tp5771
Rp5772
ag30
(g18
S'\xd2\n\xa7\x9dx\x1b\x19\xc0'
p5773
tp5774
Rp5775
ag30
(g18
S'\x10\x1dz\x17_~\x14\xc0'
p5776
tp5777
Rp5778
ag30
(g18
S'\xd0\x17c\x1b\x93\xb1\x14\xc0'
p5779
tp5780
Rp5781
ag30
(g18
S'>\xdcJ\xfb\xf2\x98\x14\xc0'
p5782
tp5783
Rp5784
ag30
(g18
S'(\xceg\x84\x18\xe4\x14\xc0'
p5785
tp5786
Rp5787
ag30
(g18
S'*\xac\xf7\xc9\xa9\xad\x14\xc0'
p5788
tp5789
Rp5790
ag30
(g18
S',O\xa3\x82D{\x15\xc0'
p5791
tp5792
Rp5793
ag30
(g18
S'\xe4\xaa\x7f\xe0Ti\x14\xc0'
p5794
tp5795
Rp5796
ag30
(g18
S'\x02\x8e\xa7\xb3m\xe5\x14\xc0'
p5797
tp5798
Rp5799
ag30
(g18
S'\xda\xf6\x0e#\xdc\xa4\x15\xc0'
p5800
tp5801
Rp5802
ag30
(g18
S'/\xd5\xa6q\xeb\xab\x15\xc0'
p5803
tp5804
Rp5805
ag30
(g18
S'\xb7\x82\x9aF\xf9\xb7\x14\xc0'
p5806
tp5807
Rp5808
ag30
(g18
S'B8O\xd1\xdf\xf4\x14\xc0'
p5809
tp5810
Rp5811
ag30
(g18
S'\xc6,\xc3+\x8a\xf8\x15\xc0'
p5812
tp5813
Rp5814
ag30
(g18
S'\xf2\x08\xd5\xf0\x8c\x95\x14\xc0'
p5815
tp5816
Rp5817
ag30
(g18
S'6\xa5-\xb4#$\x15\xc0'
p5818
tp5819
Rp5820
ag30
(g18
S'\x80a\x14q7n\x15\xc0'
p5821
tp5822
Rp5823
ag30
(g18
S'\xc3\x17\xa5\x0bG\xbf\x16\xc0'
p5824
tp5825
Rp5826
ag30
(g18
S'\x8d\xe7\xa5\xf4\xf2\xda\x14\xc0'
p5827
tp5828
Rp5829
ag30
(g18
S'8\xb2\xa5\xdc\x9a.\x16\xc0'
p5830
tp5831
Rp5832
ag30
(g18
S'T\xbet\x03|\x10\x15\xc0'
p5833
tp5834
Rp5835
ag30
(g18
S'\xde\x17b\xcah\xdb\x16\xc0'
p5836
tp5837
Rp5838
ag30
(g18
S'.r\xdfJ\xa2\x1e\x17\xc0'
p5839
tp5840
Rp5841
ag30
(g18
S',\x84\x95l\x16\xcf\x16\xc0'
p5842
tp5843
Rp5844
ag30
(g18
S'\xf2\xad\xc5<\xdf\xf3\x19\xc0'
p5845
tp5846
Rp5847
ag30
(g18
S'dc\xf5w\xae\x7f\x19\xc0'
p5848
tp5849
Rp5850
ag30
(g18
S'\xa4\xec5\x19R\x8d\x17\xc0'
p5851
tp5852
Rp5853
ag30
(g18
S'\xe8\xacQ-}G\x19\xc0'
p5854
tp5855
Rp5856
ag30
(g18
S'\x88\xdc\xd2=\xf9\xd6\x16\xc0'
p5857
tp5858
Rp5859
ag30
(g18
S'\xf6U\xbe\x98I\xeb\x16\xc0'
p5860
tp5861
Rp5862
ag30
(g18
S'\x84\x1d\x88y\xac3\x18\xc0'
p5863
tp5864
Rp5865
ag30
(g18
S'\xe6\r\x16MS\xff\x17\xc0'
p5866
tp5867
Rp5868
ag30
(g18
S'\xab\xdf\xaa\xd8\x1a8\x15\xc0'
p5869
tp5870
Rp5871
ag30
(g18
S'J\x06{r\x80N\x17\xc0'
p5872
tp5873
Rp5874
ag30
(g18
S'\xc4_rf\x91_\x15\xc0'
p5875
tp5876
Rp5877
ag30
(g18
S'\xe6j\xc7\xbf\n\x83\x14\xc0'
p5878
tp5879
Rp5880
ag30
(g18
S'%\x04V\xd2\x04\xa4\x14\xc0'
p5881
tp5882
Rp5883
ag30
(g18
S'R\x98\x01\xe3\xa4Y\x15\xc0'
p5884
tp5885
Rp5886
ag30
(g18
S'N)1\x86a\x88\x16\xc0'
p5887
tp5888
Rp5889
ag30
(g18
S'\xac\x000\xce\xec\xa5\x14\xc0'
p5890
tp5891
Rp5892
ag30
(g18
S'\x1c#\xf9m\xf2*\x15\xc0'
p5893
tp5894
Rp5895
ag30
(g18
S'\x8e\xe2%\xbd\xfe\xda\x14\xc0'
p5896
tp5897
Rp5898
ag30
(g18
S'\x8a\x9eO\x9aD\xed\x14\xc0'
p5899
tp5900
Rp5901
ag30
(g18
S'\xe4\xd0\xcf\xf8?\x0f\x15\xc0'
p5902
tp5903
Rp5904
ag30
(g18
S'\xd5\xad.\xd0g\x82\x14\xc0'
p5905
tp5906
Rp5907
ag30
(g18
S'\xde.\x021\xf9\x89\x15\xc0'
p5908
tp5909
Rp5910
ag30
(g18
S'F\xd5z6\xae\x86\x14\xc0'
p5911
tp5912
Rp5913
ag30
(g18
S'\xde\xd9\xf8\\uQ\x15\xc0'
p5914
tp5915
Rp5916
ag30
(g18
S'\xba\xcc\xc1\xbb\xd2\xd6\x14\xc0'
p5917
tp5918
Rp5919
ag30
(g18
S's\x92v\xb7\xb7\xa3\x15\xc0'
p5920
tp5921
Rp5922
ag30
(g18
S'\xba\x1c0\xadk\x8f\x14\xc0'
p5923
tp5924
Rp5925
ag30
(g18
S'\xb4\xd4\x96,\xc2\xe4\x14\xc0'
p5926
tp5927
Rp5928
ag30
(g18
S'-FQ\xc9\xb7\xbd\x14\xc0'
p5929
tp5930
Rp5931
ag30
(g18
S'R4\x8e,\xe78\x15\xc0'
p5932
tp5933
Rp5934
ag30
(g18
S'\x1e;x\xa6\xe9\xa5\x14\xc0'
p5935
tp5936
Rp5937
ag30
(g18
S'\xa2\xf1fm\x12\xea\x14\xc0'
p5938
tp5939
Rp5940
ag30
(g18
S'\n\xd0J\xb5\xce\xf6\x14\xc0'
p5941
tp5942
Rp5943
ag30
(g18
S'\x12\xafR(\xb5\xe4\x14\xc0'
p5944
tp5945
Rp5946
ag30
(g18
S'\x88\xe2\x8d\x06\xf1\xc7\x14\xc0'
p5947
tp5948
Rp5949
ag30
(g18
S'\x0e\xd6\xe2\x11qB\x15\xc0'
p5950
tp5951
Rp5952
ag30
(g18
S'\xf1\xfb\xe7Rj\xb8\x15\xc0'
p5953
tp5954
Rp5955
ag30
(g18
S'^\x92\xd8\xf7\xec\x87\x14\xc0'
p5956
tp5957
Rp5958
ag30
(g18
S'\xe9j\xdf\x85\xd6\xa7\x14\xc0'
p5959
tp5960
Rp5961
ag30
(g18
S'\x13\xa9\xc0\xf9Q\x8b\x14\xc0'
p5962
tp5963
Rp5964
asg132
F-2.354615850177976
sg133
I9
sbsba(iMCTS
Action
p5965
(dp5966
g28
I2
sg29
I0
sg34
g4
sg35
g30
(g18
S'K\xb70k\xcc` \xc0'
p5967
tp5968
Rp5969
sg39
g5969
sg40
I1
sg41
F-8.189059591004158
sg42
F0.0
sg43
g30
(g18
S'K\xb70k\xcc` \xc0'
p5970
tp5971
Rp5972
sg47
I0
sg51
g0
(g1
g2
Ntp5973
Rp5974
(dp5975
g6
g5965
sg7
g8
(g9
(I0
tp5976
g11
tp5977
Rp5978
(I1
(I2
tp5979
g18
I00
S'\x00\x00\x00\xe0^Y\x06\xc0\x00\x00\x00\xa0\xae$\xf5\xbf'
p5980
tp5981
bsg23
Nsg24
(lp5982
(iMCTS
Action
p5983
(dp5984
g28
I0
sg29
I0
sg34
g5974
sg35
g8
(g9
(I0
tp5985
g11
tp5986
Rp5987
(I1
(I1
I1
tp5988
g70
I00
S'\xea2\xba\xc0'
p5989
tp5990
bsg40
I0
sg41
g5987
sg43
I0
sg47
F1.0
sba(iMCTS
Action
p5991
(dp5992
g28
I1
sg29
I0
sg34
g5974
sg35
g5987
sg40
I0
sg41
g5987
sg43
I0
sg47
F1.0
sba(iMCTS
Action
p5993
(dp5994
g28
I2
sg29
I0
sg34
g5974
sg35
g5987
sg40
I0
sg41
g5987
sg43
I0
sg47
F1.0
sba(iMCTS
Action
p5995
(dp5996
g28
I3
sg29
I0
sg34
g5974
sg35
g5987
sg40
I0
sg41
g5987
sg43
I0
sg47
F1.0
sba(iMCTS
Action
p5997
(dp5998
g28
I4
sg29
I0
sg34
g5974
sg35
g5987
sg40
I0
sg41
g5987
sg43
I0
sg47
F1.0
sba(iMCTS
Action
p5999
(dp6000
g28
I5
sg29
I0
sg34
g5974
sg35
g5987
sg40
I0
sg41
g5987
sg43
I0
sg47
F1.0
sba(iMCTS
Action
p6001
(dp6002
g28
I6
sg29
I0
sg34
g5974
sg35
g5987
sg40
I0
sg41
g5987
sg43
I0
sg47
F1.0
sba(iMCTS
Action
p6003
(dp6004
g28
I7
sg29
I0
sg34
g5974
sg35
g5987
sg40
I0
sg41
g5987
sg43
I0
sg47
F1.0
sba(iMCTS
Action
p6005
(dp6006
g28
I8
sg29
I0
sg34
g5974
sg35
g5987
sg40
I0
sg41
g5987
sg43
I0
sg47
F1.0
sbasg121
g8
(g9
(I0
tp6007
g11
tp6008
Rp6009
(I1
(I9
tp6010
g70
I00
S"'\xd1e?\x90R\xd1=\xb4@\x118eq\x9a7r\xf8#6\x17\xef\x1c78o\x8867\x8bq2_i\xb63"
p6011
tp6012
bsg128
g5987
sg40
I0
sg129
I00
sg130
(lp6013
sg132
F-2.370344495484139
sg133
I9
sbsba(iMCTS
Action
p6014
(dp6015
g28
I3
sg29
I0
sg34
g4
sg35
g30
(g18
S':Oj\xeb>X"\xc0'
p6016
tp6017
Rp6018
sg39
g6018
sg40
I1
sg41
F-9.17235503838275
sg42
F0.0
sg43
g30
(g18
S':Oj\xeb>X"\xc0'
p6019
tp6020
Rp6021
sg47
I0
sg51
g0
(g1
g2
Ntp6022
Rp6023
(dp6024
g6
g6014
sg7
g8
(g9
(I0
tp6025
g11
tp6026
Rp6027
(I1
(I2
tp6028
g18
I00
S'\x00\x00\x00`%\x8e\n\xc0\x00\x00\x00\x00c\x9b\xc4?'
p6029
tp6030
bsg23
Nsg24
(lp6031
(iMCTS
Action
p6032
(dp6033
g28
I0
sg29
I0
sg34
g6023
sg35
g8
(g9
(I0
tp6034
g11
tp6035
Rp6036
(I1
(I1
I1
tp6037
g70
I00
S'\xd7\x0f\xd2\xc0'
p6038
tp6039
bsg40
I0
sg41
g6036
sg43
I0
sg47
F1.0
sba(iMCTS
Action
p6040
(dp6041
g28
I1
sg29
I0
sg34
g6023
sg35
g6036
sg40
I0
sg41
g6036
sg43
I0
sg47
F1.0
sba(iMCTS
Action
p6042
(dp6043
g28
I2
sg29
I0
sg34
g6023
sg35
g6036
sg40
I0
sg41
g6036
sg43
I0
sg47
F1.0
sba(iMCTS
Action
p6044
(dp6045
g28
I3
sg29
I0
sg34
g6023
sg35
g6036
sg40
I0
sg41
g6036
sg43
I0
sg47
F1.0
sba(iMCTS
Action
p6046
(dp6047
g28
I4
sg29
I0
sg34
g6023
sg35
g6036
sg40
I0
sg41
g6036
sg43
I0
sg47
F1.0
sba(iMCTS
Action
p6048
(dp6049
g28
I5
sg29
I0
sg34
g6023
sg35
g6036
sg40
I0
sg41
g6036
sg43
I0
sg47
F1.0
sba(iMCTS
Action
p6050
(dp6051
g28
I6
sg29
I0
sg34
g6023
sg35
g6036
sg40
I0
sg41
g6036
sg43
I0
sg47
F1.0
sba(iMCTS
Action
p6052
(dp6053
g28
I7
sg29
I0
sg34
g6023
sg35
g6036
sg40
I0
sg41
g6036
sg43
I0
sg47
F1.0
sba(iMCTS
Action
p6054
(dp6055
g28
I8
sg29
I0
sg34
g6023
sg35
g6036
sg40
I0
sg41
g6036
sg43
I0
sg47
F1.0
sbasg121
g8
(g9
(I0
tp6056
g11
tp6057
Rp6058
(I1
(I9
tp6059
g70
I00
S'M6V9\x89\x7f{?[N\x8e<\x0b\xd7\xb46$aD5`?^6;\xb3\x154\xd1\x99\xb90mb\xf12'
p6060
tp6061
bsg128
g6036
sg40
I0
sg129
I00
sg130
(lp6062
sg132
F-2.607921463706237
sg133
I9
sbsba(iMCTS
Action
p6063
(dp6064
g28
I4
sg29
I0
sg34
g4
sg35
g30
(g18
S'\xfc\x087d0:"\xc0'
p6065
tp6066
Rp6067
sg39
g6067
sg40
I1
sg41
F-9.113650447576667
sg42
F0.0
sg43
g30
(g18
S'\xfc\x087d0:"\xc0'
p6068
tp6069
Rp6070
sg47
I0
sg51
g0
(g1
g2
Ntp6071
Rp6072
(dp6073
g6
g6063
sg7
g8
(g9
(I0
tp6074
g11
tp6075
Rp6076
(I1
(I2
tp6077
g18
I00
S'\x00\x00\x00@\xa2s\n\xc0\x00\x00\x00\xc0\xac\xc9\xc9\xbf'
p6078
tp6079
bsg23
Nsg24
(lp6080
(iMCTS
Action
p6081
(dp6082
g28
I0
sg29
I0
sg34
g6072
sg35
g8
(g9
(I0
tp6083
g11
tp6084
Rp6085
(I1
(I1
I1
tp6086
g70
I00
S'\x88\x89\xd0\xc0'
p6087
tp6088
bsg40
I0
sg41
g6085
sg43
I0
sg47
F1.0
sba(iMCTS
Action
p6089
(dp6090
g28
I1
sg29
I0
sg34
g6072
sg35
g6085
sg40
I0
sg41
g6085
sg43
I0
sg47
F1.0
sba(iMCTS
Action
p6091
(dp6092
g28
I2
sg29
I0
sg34
g6072
sg35
g6085
sg40
I0
sg41
g6085
sg43
I0
sg47
F1.0
sba(iMCTS
Action
p6093
(dp6094
g28
I3
sg29
I0
sg34
g6072
sg35
g6085
sg40
I0
sg41
g6085
sg43
I0
sg47
F1.0
sba(iMCTS
Action
p6095
(dp6096
g28
I4
sg29
I0
sg34
g6072
sg35
g6085
sg40
I0
sg41
g6085
sg43
I0
sg47
F1.0
sba(iMCTS
Action
p6097
(dp6098
g28
I5
sg29
I0
sg34
g6072
sg35
g6085
sg40
I0
sg41
g6085
sg43
I0
sg47
F1.0
sba(iMCTS
Action
p6099
(dp6100
g28
I6
sg29
I0
sg34
g6072
sg35
g6085
sg40
I0
sg41
g6085
sg43
I0
sg47
F1.0
sba(iMCTS
Action
p6101
(dp6102
g28
I7
sg29
I0
sg34
g6072
sg35
g6085
sg40
I0
sg41
g6085
sg43
I0
sg47
F1.0
sba(iMCTS
Action
p6103
(dp6104
g28
I8
sg29
I0
sg34
g6072
sg35
g6085
sg40
I0
sg41
g6085
sg43
I0
sg47
F1.0
sbasg121
g8
(g9
(I0
tp6105
g11
tp6106
Rp6107
(I1
(I9
tp6108
g70
I00
S'\xb9%s;\x99{~?\x1dJ\x10;\xb6Z\x077\xdab\x8d5\x85U\xaa6O\xa5\x145\xf2+\xae16\xb5\x962'
p6109
tp6110
bsg128
g6085
sg40
I0
sg129
I00
sg130
(lp6111
sg132
F-2.596861964910651
sg133
I9
sbsba(iMCTS
Action
p6112
(dp6113
g28
I5
sg29
I0
sg34
g4
sg35
g30
(g18
S'\x10\\Y\xba\xab\xa5"\xc0'
p6114
tp6115
Rp6116
sg39
g6116
sg40
I1
sg41
F-9.323575805099637
sg42
F0.0
sg43
g30
(g18
S'\x10\\Y\xba\xab\xa5"\xc0'
p6117
tp6118
Rp6119
sg47
I0
sg51
g0
(g1
g2
Ntp6120
Rp6121
(dp6122
g6
g6112
sg7
g8
(g9
(I0
tp6123
g11
tp6124
Rp6125
(I1
(I2
tp6126
g18
I00
S'\x00\x00\x00\xa0\x90-\n\xc0\x00\x00\x00@A\x03\xe2\xbf'
p6127
tp6128
bsg23
Nsg24
(lp6129
(iMCTS
Action
p6130
(dp6131
g28
I0
sg29
I0
sg34
g6121
sg35
g8
(g9
(I0
tp6132
g11
tp6133
Rp6134
(I1
(I1
I1
tp6135
g70
I00
S'/,\xd7\xc0'
p6136
tp6137
bsg40
I0
sg41
g6134
sg43
I0
sg47
F1.0
sba(iMCTS
Action
p6138
(dp6139
g28
I1
sg29
I0
sg34
g6121
sg35
g6134
sg40
I0
sg41
g6134
sg43
I0
sg47
F1.0
sba(iMCTS
Action
p6140
(dp6141
g28
I2
sg29
I0
sg34
g6121
sg35
g6134
sg40
I0
sg41
g6134
sg43
I0
sg47
F1.0
sba(iMCTS
Action
p6142
(dp6143
g28
I3
sg29
I0
sg34
g6121
sg35
g6134
sg40
I0
sg41
g6134
sg43
I0
sg47
F1.0
sba(iMCTS
Action
p6144
(dp6145
g28
I4
sg29
I0
sg34
g6121
sg35
g6134
sg40
I0
sg41
g6134
sg43
I0
sg47
F1.0
sba(iMCTS
Action
p6146
(dp6147
g28
I5
sg29
I0
sg34
g6121
sg35
g6134
sg40
I0
sg41
g6134
sg43
I0
sg47
F1.0
sba(iMCTS
Action
p6148
(dp6149
g28
I6
sg29
I0
sg34
g6121
sg35
g6134
sg40
I0
sg41
g6134
sg43
I0
sg47
F1.0
sba(iMCTS
Action
p6150
(dp6151
g28
I7
sg29
I0
sg34
g6121
sg35
g6134
sg40
I0
sg41
g6134
sg43
I0
sg47
F1.0
sba(iMCTS
Action
p6152
(dp6153
g28
I8
sg29
I0
sg34
g6121
sg35
g6134
sg40
I0
sg41
g6134
sg43
I0
sg47
F1.0
sbasg121
g8
(g9
(I0
tp6154
g11
tp6155
Rp6156
(I1
(I9
tp6157
g70
I00
S'\x08\n<=]\x04t?\xdd\xceb:\x89\x0b\x9f7\x8di&6\x8dp@7\x83\xbe\x1b6\x9c\x9a\xc32\xa8\x1443'
p6158
tp6159
bsg128
g6134
sg40
I0
sg129
I00
sg130
(lp6160
sg132
F-2.5994323000032016
sg133
I9
sbsba(iMCTS
Action
p6161
(dp6162
g28
I6
sg29
I0
sg34
g4
sg35
g30
(g18
S'\xe0\x14\xaf\x9a`\x9f#\xc0'
p6163
tp6164
Rp6165
sg39
g6165
sg40
I1
sg41
F-9.811283906814822
sg42
F0.0
sg43
g30
(g18
S'\xe0\x14\xaf\x9a`\x9f#\xc0'
p6166
tp6167
Rp6168
sg47
I0
sg51
g0
(g1
g2
Ntp6169
Rp6170
(dp6171
g6
g6161
sg7
g8
(g9
(I0
tp6172
g11
tp6173
Rp6174
(I1
(I2
tp6175
g18
I00
S'\x00\x00\x00\x80\xe4\\\x0b\xc0\x00\x00\x00\x80B\x82\xd0?'
p6176
tp6177
bsg23
Nsg24
(lp6178
(iMCTS
Action
p6179
(dp6180
g28
I0
sg29
I0
sg34
g6170
sg35
g8
(g9
(I0
tp6181
g11
tp6182
Rp6183
(I1
(I1
I1
tp6184
g70
I00
S'\xa8.\xe3\xc0'
p6185
tp6186
bsg40
I0
sg41
g6183
sg43
I0
sg47
F1.0
sba(iMCTS
Action
p6187
(dp6188
g28
I1
sg29
I0
sg34
g6170
sg35
g6183
sg40
I0
sg41
g6183
sg43
I0
sg47
F1.0
sba(iMCTS
Action
p6189
(dp6190
g28
I2
sg29
I0
sg34
g6170
sg35
g6183
sg40
I0
sg41
g6183
sg43
I0
sg47
F1.0
sba(iMCTS
Action
p6191
(dp6192
g28
I3
sg29
I0
sg34
g6170
sg35
g6183
sg40
I0
sg41
g6183
sg43
I0
sg47
F1.0
sba(iMCTS
Action
p6193
(dp6194
g28
I4
sg29
I0
sg34
g6170
sg35
g6183
sg40
I0
sg41
g6183
sg43
I0
sg47
F1.0
sba(iMCTS
Action
p6195
(dp6196
g28
I5
sg29
I0
sg34
g6170
sg35
g6183
sg40
I0
sg41
g6183
sg43
I0
sg47
F1.0
sba(iMCTS
Action
p6197
(dp6198
g28
I6
sg29
I0
sg34
g6170
sg35
g6183
sg40
I0
sg41
g6183
sg43
I0
sg47
F1.0
sba(iMCTS
Action
p6199
(dp6200
g28
I7
sg29
I0
sg34
g6170
sg35
g6183
sg40
I0
sg41
g6183
sg43
I0
sg47
F1.0
sba(iMCTS
Action
p6201
(dp6202
g28
I8
sg29
I0
sg34
g6170
sg35
g6183
sg40
I0
sg41
g6183
sg43
I0
sg47
F1.0
sbasg121
g8
(g9
(I0
tp6203
g11
tp6204
Rp6205
(I1
(I9
tp6206
g70
I00
S'\xa6\xb7\xea86Vw?\xce\x19\n=\xbe\x98\xec6\x00\xc9\x935\x1c\xda\x926\xa2kN4\xfe;\xe10\r\x1a\x873'
p6207
tp6208
bsg128
g6183
sg40
I0
sg129
I00
sg130
(lp6209
sg132
F-2.7118385637972433
sg133
I9
sbsba(iMCTS
Action
p6210
(dp6211
g28
I7
sg29
I0
sg34
g4
sg35
g30
(g18
S'\x8d\x05\xc0\x86\xe7d#\xc0'
p6212
tp6213
Rp6214
sg39
g6214
sg40
I1
sg41
F-9.697078906002185
sg42
F0.0
sg43
g30
(g18
S'\x8d\x05\xc0\x86\xe7d#\xc0'
p6215
tp6216
Rp6217
sg47
I0
sg51
g0
(g1
g2
Ntp6218
Rp6219
(dp6220
g6
g6210
sg7
g8
(g9
(I0
tp6221
g11
tp6222
Rp6223
(I1
(I2
tp6224
g18
I00
S'\x00\x00\x00@R<\x0b\xc0\x00\x00\x00\x00\xa8\xf5\xcb?'
p6225
tp6226
bsg23
Nsg24
(lp6227
(iMCTS
Action
p6228
(dp6229
g28
I0
sg29
I0
sg34
g6219
sg35
g8
(g9
(I0
tp6230
g11
tp6231
Rp6232
(I1
(I1
I1
tp6233
g70
I00
S'\xf2\x11\xe0\xc0'
p6234
tp6235
bsg40
I0
sg41
g6232
sg43
I0
sg47
F1.0
sba(iMCTS
Action
p6236
(dp6237
g28
I1
sg29
I0
sg34
g6219
sg35
g6232
sg40
I0
sg41
g6232
sg43
I0
sg47
F1.0
sba(iMCTS
Action
p6238
(dp6239
g28
I2
sg29
I0
sg34
g6219
sg35
g6232
sg40
I0
sg41
g6232
sg43
I0
sg47
F1.0
sba(iMCTS
Action
p6240
(dp6241
g28
I3
sg29
I0
sg34
g6219
sg35
g6232
sg40
I0
sg41
g6232
sg43
I0
sg47
F1.0
sba(iMCTS
Action
p6242
(dp6243
g28
I4
sg29
I0
sg34
g6219
sg35
g6232
sg40
I0
sg41
g6232
sg43
I0
sg47
F1.0
sba(iMCTS
Action
p6244
(dp6245
g28
I5
sg29
I0
sg34
g6219
sg35
g6232
sg40
I0
sg41
g6232
sg43
I0
sg47
F1.0
sba(iMCTS
Action
p6246
(dp6247
g28
I6
sg29
I0
sg34
g6219
sg35
g6232
sg40
I0
sg41
g6232
sg43
I0
sg47
F1.0
sba(iMCTS
Action
p6248
(dp6249
g28
I7
sg29
I0
sg34
g6219
sg35
g6232
sg40
I0
sg41
g6232
sg43
I0
sg47
F1.0
sba(iMCTS
Action
p6250
(dp6251
g28
I8
sg29
I0
sg34
g6219
sg35
g6232
sg40
I0
sg41
g6232
sg43
I0
sg47
F1.0
sbasg121
g8
(g9
(I0
tp6252
g11
tp6253
Rp6254
(I1
(I9
tp6255
g70
I00
S"\xcb\n\x1a9rJy?\xc5c\xd5<\xb5\xbd\xe46\xf0H\x8b5D8\x8e6<_R4\xc5'\xe80\xac\xff^3"
p6256
tp6257
bsg128
g6232
sg40
I0
sg129
I00
sg130
(lp6258
sg132
F-2.6948883160973995
sg133
I9
sbsba(iMCTS
Action
p6259
(dp6260
g28
I8
sg29
I0
sg34
g4
sg35
g30
(g18
S'\x87\xc1,\\\xd3@#\xc0'
p6261
tp6262
Rp6263
sg39
g6263
sg40
I1
sg41
F-9.626612549270034
sg42
F0.0
sg43
g30
(g18
S'\x87\xc1,\\\xd3@#\xc0'
p6264
tp6265
Rp6266
sg47
I0
sg51
g0
(g1
g2
Ntp6267
Rp6268
(dp6269
g6
g6259
sg7
g8
(g9
(I0
tp6270
g11
tp6271
Rp6272
(I1
(I2
tp6273
g18
I00
S'\x00\x00\x00\x00}6\x0b\xc0\x00\x00\x00\x00\xff0\xb1?'
p6274
tp6275
bsg23
Nsg24
(lp6276
(iMCTS
Action
p6277
(dp6278
g28
I0
sg29
I0
sg34
g6268
sg35
g8
(g9
(I0
tp6279
g11
tp6280
Rp6281
(I1
(I1
I1
tp6282
g70
I00
S'\x81\x0c\xde\xc0'
p6283
tp6284
bsg40
I0
sg41
g6281
sg43
I0
sg47
F1.0
sba(iMCTS
Action
p6285
(dp6286
g28
I1
sg29
I0
sg34
g6268
sg35
g6281
sg40
I0
sg41
g6281
sg43
I0
sg47
F1.0
sba(iMCTS
Action
p6287
(dp6288
g28
I2
sg29
I0
sg34
g6268
sg35
g6281
sg40
I0
sg41
g6281
sg43
I0
sg47
F1.0
sba(iMCTS
Action
p6289
(dp6290
g28
I3
sg29
I0
sg34
g6268
sg35
g6281
sg40
I0
sg41
g6281
sg43
I0
sg47
F1.0
sba(iMCTS
Action
p6291
(dp6292
g28
I4
sg29
I0
sg34
g6268
sg35
g6281
sg40
I0
sg41
g6281
sg43
I0
sg47
F1.0
sba(iMCTS
Action
p6293
(dp6294
g28
I5
sg29
I0
sg34
g6268
sg35
g6281
sg40
I0
sg41
g6281
sg43
I0
sg47
F1.0
sba(iMCTS
Action
p6295
(dp6296
g28
I6
sg29
I0
sg34
g6268
sg35
g6281
sg40
I0
sg41
g6281
sg43
I0
sg47
F1.0
sba(iMCTS
Action
p6297
(dp6298
g28
I7
sg29
I0
sg34
g6268
sg35
g6281
sg40
I0
sg41
g6281
sg43
I0
sg47
F1.0
sba(iMCTS
Action
p6299
(dp6300
g28
I8
sg29
I0
sg34
g6268
sg35
g6281
sg40
I0
sg41
g6281
sg43
I0
sg47
F1.0
sbasg121
g8
(g9
(I0
tp6301
g11
tp6302
Rp6303
(I1
(I9
tp6304
g70
I00
S'\x01\xc6\x00:\xf8l}?\xc8|\x1c<\xb6i\xf86\xf9\x7f\x945\xac|\x9d6\xb3\xf9\xb04HT<1]S\x173'
p6305
tp6306
bsg128
g6281
sg40
I0
sg129
I00
sg130
(lp6307
sg132
F-2.687586193526626
sg133
I9
sbsbasg121
g8
(g9
(I0
tp6308
g11
tp6309
Rp6310
(I1
(I9
tp6311
g70
I00
S'\x04\x1ec<\x1f\x03|?[\xf1\xda:\xb1/\xbc7\x9en\x7f6o\x9cw7\x0c\x01x6\x00&\t3n\x12\xc33'
p6312
tp6313
bsg128
g8
(g9
(I0
tp6314
g11
tp6315
Rp6316
(I1
(I1
I1
tp6317
g70
I00
S'Z\x9a\xfa\xc0'
p6318
tp6319
bsg40
I101
sg129
I00
sg130
(lp6320
g5969
ag30
(g18
S'`\xb0\xdf!Dx\x1f\xc0'
p6321
tp6322
Rp6323
ag30
(g18
S'm\xa1\xdc\n=\xfa\x1e\xc0'
p6324
tp6325
Rp6326
ag30
(g18
S'cV\xc0A\x01}\x1e\xc0'
p6327
tp6328
Rp6329
ag30
(g18
S'\xf4\xc6\xc1\x19s7\x1e\xc0'
p6330
tp6331
Rp6332
ag30
(g18
S'\x8a\xc3\xa3PQp \xc0'
p6333
tp6334
Rp6335
ag30
(g18
S'y\xd3\x0e$\xca\x9d\x1d\xc0'
p6336
tp6337
Rp6338
ag30
(g18
S'<\x00\x1f\xc6^4\x1e\xc0'
p6339
tp6340
Rp6341
ag30
(g18
S'\xb0V\\\x84\x87: \xc0'
p6342
tp6343
Rp6344
ag30
(g18
S'\xa4\xf0\x08,\x19\xab \xc0'
p6345
tp6346
Rp6347
ag30
(g18
S'\xc3sO5\xbb%\x1e\xc0'
p6348
tp6349
Rp6350
ag30
(g18
S'\r\x89\x18P\xf0\xf9\x1d\xc0'
p6351
tp6352
Rp6353
ag30
(g18
S'\x16\x81{\xa2\xaa\xc6 \xc0'
p6354
tp6355
Rp6356
ag30
(g18
S'\x03\xf9m\x16\x18\x15\x1e\xc0'
p6357
tp6358
Rp6359
ag30
(g18
S'E\x92\xa8\xbb\xa9\xcc\x1d\xc0'
p6360
tp6361
Rp6362
ag30
(g18
S'V\xed7\x0f\xd7\r \xc0'
p6363
tp6364
Rp6365
ag30
(g18
S'\x9f\xea\xd5S\xdd\x14\x1e\xc0'
p6366
tp6367
Rp6368
ag30
(g18
S'~]\xc9\x92\xaf\x1c\x1f\xc0'
p6369
tp6370
Rp6371
ag30
(g18
S'vUe\xdam\xb5 \xc0'
p6372
tp6373
Rp6374
ag30
(g18
S'\x1c\xb5cB\xdc\xaf \xc0'
p6375
tp6376
Rp6377
ag30
(g18
S'.\xf1TR\x8e\x8a \xc0'
p6378
tp6379
Rp6380
ag30
(g18
S'\x02\xf3\x82\x93\x92G!\xc0'
p6381
tp6382
Rp6383
ag30
(g18
S'N,\x02\xf8\xb6\xc9!\xc0'
p6384
tp6385
Rp6386
ag6018
ag6116
ag6067
ag6165
ag6263
ag6214
ag30
(g18
S'\\TC\xda\xa4\xcf!\xc0'
p6387
tp6388
Rp6389
ag30
(g18
S'\x93\x98\xdd\xa2\x1c\x8f"\xc0'
p6390
tp6391
Rp6392
ag30
(g18
S'P\x0e\x86p4\x86!\xc0'
p6393
tp6394
Rp6395
ag30
(g18
S'(N@\xf6\x06\xf5"\xc0'
p6396
tp6397
Rp6398
ag30
(g18
S'P\x8a\r\x1c_\x95"\xc0'
p6399
tp6400
Rp6401
ag30
(g18
S'\x88\xa7B\xb7I\xde"\xc0'
p6402
tp6403
Rp6404
ag30
(g18
S'\x08,\x84\x0bA\x01!\xc0'
p6405
tp6406
Rp6407
ag30
(g18
S'\xf0Y\x94\x99\xef"\x1e\xc0'
p6408
tp6409
Rp6410
ag30
(g18
S' \xd6A\x84LC!\xc0'
p6411
tp6412
Rp6413
ag30
(g18
S'}\xbeV\x82\x7f\xe9\x1d\xc0'
p6414
tp6415
Rp6416
ag30
(g18
S'=\xb9?\x86\xb3\x1c\x1e\xc0'
p6417
tp6418
Rp6419
ag30
(g18
S"\xab}'f\x13\x04\x1e\xc0"
p6420
tp6421
Rp6422
ag30
(g18
S'\x95oD\xef8O\x1e\xc0'
p6423
tp6424
Rp6425
ag30
(g18
S'\x97M\xd44\xca\x18\x1e\xc0'
p6426
tp6427
Rp6428
ag30
(g18
S'\x99\xf0\x7f\xedd\xe6\x1e\xc0'
p6429
tp6430
Rp6431
ag30
(g18
S'QL\\Ku\xd4\x1d\xc0'
p6432
tp6433
Rp6434
ag30
(g18
S'o/\x84\x1e\x8eP\x1e\xc0'
p6435
tp6436
Rp6437
ag30
(g18
S'G\x98\xeb\x8d\xfc\x0f\x1f\xc0'
p6438
tp6439
Rp6440
ag30
(g18
S'\x9cv\x83\xdc\x0b\x17\x1f\xc0'
p6441
tp6442
Rp6443
ag30
(g18
S'$$w\xb1\x19#\x1e\xc0'
p6444
tp6445
Rp6446
ag30
(g18
S'\xaf\xd9+<\x00`\x1e\xc0'
p6447
tp6448
Rp6449
ag30
(g18
S'3\xce\x9f\x96\xaac\x1f\xc0'
p6450
tp6451
Rp6452
ag30
(g18
S'_\xaa\xb1[\xad\x00\x1e\xc0'
p6453
tp6454
Rp6455
ag30
(g18
S'\xa3F\n\x1fD\x8f\x1e\xc0'
p6456
tp6457
Rp6458
ag30
(g18
S'\xed\x02\xf1\xdbW\xd9\x1e\xc0'
p6459
tp6460
Rp6461
ag30
(g18
S'\x98\xdc@\xbb3\x15 \xc0'
p6462
tp6463
Rp6464
ag30
(g18
S'\xfa\x88\x82_\x13F\x1e\xc0'
p6465
tp6466
Rp6467
ag30
(g18
S'\xa5S\x82G\xbb\x99\x1f\xc0'
p6468
tp6469
Rp6470
ag30
(g18
S'\xc1_Qn\x9c{\x1e\xc0'
p6471
tp6472
Rp6473
ag30
(g18
S'\xa6\\\x9f\x9aD# \xc0'
p6474
tp6475
Rp6476
ag30
(g18
S'\xce\t\xdeZ\xe1D \xc0'
p6477
tp6478
Rp6479
ag30
(g18
S'\xcc\x12\xb9k\x1b\x1d \xc0'
p6480
tp6481
Rp6482
ag30
(g18
S"\xb0'\xd1\xd3\x7f\xaf!\xc0"
p6483
tp6484
Rp6485
ag30
(g18
S'h\x02iqgu!\xc0'
p6486
tp6487
Rp6488
ag30
(g18
S'\x08G\tB9| \xc0'
p6489
tp6490
Rp6491
ag30
(g18
S"*'\x17\xccNY!\xc0"
p6492
tp6493
Rp6494
ag30
(g18
S'\xfa\xbeW\xd4\x0c! \xc0'
p6495
tp6496
Rp6497
ag30
(g18
S'\xb2{\xcd\x015+ \xc0'
p6498
tp6499
Rp6500
ag30
(g18
S'x_2rf\xcf \xc0'
p6501
tp6502
Rp6503
ag30
(g18
S'\xaaW\xf9\xdb9\xb5 \xc0'
p6504
tp6505
Rp6506
ag30
(g18
S'\x18\x81\x87C;\xa3\x1e\xc0'
p6507
tp6508
Rp6509
ag30
(g18
S'\xdc\xd3\xabn\xd0\\ \xc0'
p6510
tp6511
Rp6512
ag30
(g18
S'1\x01O\xd1\xb1\xca\x1e\xc0'
p6513
tp6514
Rp6515
ag30
(g18
S'S\x0c\xa4*+\xee\x1d\xc0'
p6516
tp6517
Rp6518
ag30
(g18
S'\x92\xa52=%\x0f\x1e\xc0'
p6519
tp6520
Rp6521
ag30
(g18
S'\xbf9\xdeM\xc5\xc4\x1e\xc0'
p6522
tp6523
Rp6524
ag30
(g18
S'\xbb\xca\r\xf1\x81\xf3\x1f\xc0'
p6525
tp6526
Rp6527
ag30
(g18
S'\x19\xa2\x0c9\r\x11\x1e\xc0'
p6528
tp6529
Rp6530
ag30
(g18
S'\x89\xc4\xd5\xd8\x12\x96\x1e\xc0'
p6531
tp6532
Rp6533
ag30
(g18
S'\xfb\x83\x02(\x1fF\x1e\xc0'
p6534
tp6535
Rp6536
ag30
(g18
S'\xf7?,\x05eX\x1e\xc0'
p6537
tp6538
Rp6539
ag30
(g18
S'Qr\xacc`z\x1e\xc0'
p6540
tp6541
Rp6542
ag30
(g18
S'BO\x0b;\x88\xed\x1d\xc0'
p6543
tp6544
Rp6545
ag30
(g18
S'K\xd0\xde\x9b\x19\xf5\x1e\xc0'
p6546
tp6547
Rp6548
ag30
(g18
S'\xb3vW\xa1\xce\xf1\x1d\xc0'
p6549
tp6550
Rp6551
ag30
(g18
S'K{\xd5\xc7\x95\xbc\x1e\xc0'
p6552
tp6553
Rp6554
ag30
(g18
S"'n\x9e&\xf3A\x1e\xc0"
p6555
tp6556
Rp6557
ag30
(g18
S'\xe03S"\xd8\x0e\x1f\xc0'
p6558
tp6559
Rp6560
ag30
(g18
S"'\xbe\x0c\x18\x8c\xfa\x1d\xc0"
p6561
tp6562
Rp6563
ag30
(g18
S'!vs\x97\xe2O\x1e\xc0'
p6564
tp6565
Rp6566
ag30
(g18
S'\x9a\xe7-4\xd8(\x1e\xc0'
p6567
tp6568
Rp6569
ag30
(g18
S'\xbf\xd5j\x97\x07\xa4\x1e\xc0'
p6570
tp6571
Rp6572
ag30
(g18
S'\x8b\xdcT\x11\n\x11\x1e\xc0'
p6573
tp6574
Rp6575
ag30
(g18
S'\x0f\x93C\xd82U\x1e\xc0'
p6576
tp6577
Rp6578
ag30
(g18
S"wq' \xefa\x1e\xc0"
p6579
tp6580
Rp6581
ag30
(g18
S'\x7fP/\x93\xd5O\x1e\xc0'
p6582
tp6583
Rp6584
ag30
(g18
S'\xf5\x83jq\x113\x1e\xc0'
p6585
tp6586
Rp6587
ag30
(g18
S'{w\xbf|\x91\xad\x1e\xc0'
p6588
tp6589
Rp6590
ag30
(g18
S'^\x9d\xc4\xbd\x8a#\x1f\xc0'
p6591
tp6592
Rp6593
ag30
(g18
S'\xcb3\xb5b\r\xf3\x1d\xc0'
p6594
tp6595
Rp6596
ag30
(g18
S'V\x0c\xbc\xf0\xf6\x12\x1e\xc0'
p6597
tp6598
Rp6599
ag30
(g18
S'\x80J\x9ddr\xf6\x1d\xc0'
p6600
tp6601
Rp6602
asg132
F-2.815602444412346
sg133
I9
sb.